(dp1
S'output'
p2
S"<type 'exceptions.SyntaxError'> invalid syntax (default.py, line 203)"
p3
sS'layer'
p4
S'/home/user/Documents/web2py/applications/IMAGE_JOURNAL/controllers/default.py'
p5
sS'code'
p6
S'"""This is the registration controller"""\ndef register():\n\trecord = db.register(request.args(0))\n\tform = SQLFORM(db.register,record)\n\t\n\tif form.accepts(request,session,hideerror = True):\n\t\t\tresponse.title = \'Thanks the form has been accepted\'\n\t\t\tredirect(URL(\'default\',\'login\'))\n\telif form.errors:\n\t\tresponse.title = \'please fill the form correctly\'\n\telse:\n\t\tresponse.title = \'please fill the form\'\n\treturn dict(form = form,x = form.vars.id)\n\n\n"""This function can be used to see any database. This is only for developer use"""\ndef all_records():\n      grid = SQLFORM.grid(db.Comments,user_signature=False)\n      return dict(grid = grid)\n\n\n\n\n"""This function can be used to delete all the entries of a database. This is only for developer use"""\ndef delete():\n\tresponse.title = "records are being deleted"\n\tdb(db.Comments.comment != None).delete()\n\n\n\n\n"""This is the login function. This will create a session for the logged in user"""\ndef login():\n\timport random\n\tform = SQLFORM(db.login)\n\tform.custom.submit[\'_id\'] = "buttonstyle"\n\tif form.accepts(request,session,hideerror = True):\n\t\tif(form.vars.Password == db(db.register.Email == form.vars.Email).select()[0].Password):\n\t\t\tresponse.title = "you have successfully logged in"\n\t\t\tx = str(random.randint(1000000,10000000))\n\t\t\tdb(db.login.id == form.vars.id).update(session_id = x, session_status = 1)\n\t\t\tredirect(URL(\'timeline/\'+x))\n\t\telse:\n\t\t\tresponse.title = "Sorry wrong password"\n\t\t\tname = "Stranger"\n\telif form.errors:\n\t\tresponse.title = "you have to first register yourselves"\n\t\tname = "Guest"\n\telse:\n\t\tresponse.title = "please fill in your login details"\n\t\tname = "Guest"\n\treturn dict(form = form,name = name)\n\n\ndef timeline():\n\tsession_id = request.args[0]\n        r = check(session_id)\n\tif(r == \'0\'):\n\t\tresponse.title = "hello world"\n\t\tredirect(URL(\'not_logged_in\'))\n\tname = get_name(session_id)\n\t\t\n\trows = db(db.Image.owner == name).select(orderby=~db.Image.id)\n\tids = []\n\t\n\tfor i in rows:\n\t\tr = db(db.Albums.album_name == i.album).select()[0].id\n\t\tids.append(r)\n\n\treturn dict(name = name,session_id = session_id, rows = rows, ids = ids)\n\t\t\n"""This is for the home page of the user"""\ndef user():\n\tsession_id = request.args[0]\n        r = check(session_id)\n\tif(r == \'0\'):\n\t\tresponse.title = "hello world"\n\t\tredirect(URL(\'not_logged_in\'))\n\tname = get_name(session_id)\n\tresponse.title = "Welcome " + name\n\treturn dict(name = name,session_id = session_id)\n\n\n\n"""Using this controller the user can add an album in his database"""\ndef add_album():\n\tmsg = "welcome"\n\targs = request.args\n\tsession_id = args[0]\n\tr = check(session_id)\n\tif(r == 0):\n\t\tredirect(URL(\'not_logged_in\'))\n\tname = get_name(session_id)\n\tresponse.title = "Create Album" + name\t\n\trecord = db.Albums(request.args(0))\n\tform = SQLFORM(db.Albums,record)\n\tif form.accepts(request,session):\n\t\tdb(db.Albums.id == form.vars.id).update(owner = name)\n\t\tx = db(db.register.Email == name).select()[0].albums\n\t\tdb(db.register.Email == name).update(albums = x + [form.vars.id])\n\t\tredirect(URL(\'my_albums/\' + session_id))\t\t\n\tif form.errors:\n\t\tif(len(form.errors) == 1) and (form.errors.default1 == "enter a value"):\n\t\t\tmsg = "hello"\n\treturn dict(form = form,msg = msg,session_id = session_id)\n\n\n\n\n"""This will display all tehe albums of the logged in user"""\ndef my_albums():\n\targs = request.args\n\tsession_id= args[0]\n\tr = check(session_id)\n\tif(r == 0):\n\t\tredirect(URL(\'not_logged_in\'))\n\tname = get_name(session_id)\n\tresponse.title = "Welcome " + name\n\talbums = []\n\timages = []\n\trows = db(db.register.Email == name).select()[0].albums\t\n\tfor i in rows:\n\t\trow = db(db.Albums.id == i).select()[0]\n\t\talbums.append(row.album_name)\n\t\tif(row.default1!=None):\n\t\t\timages.append(row.default1)\n\t\telse:\n\t\t\timage = db(db.Image.id == 28).select()[0]\n\t\t\timages.append(image)\n\t\t\tconsole.log(image)\n\trecord = db.Albums(request.args(0))\n\tform = SQLFORM(db.Albums,record)\n\tif form.accepts(request,session):\n\t\tdb(db.Albums.id == form.vars.id).update(owner = name)\n\t\tx = db(db.register.Email == name).select()[0].albums\n\t\tdb(db.register.Email == name).update(albums = x + [form.vars.id])\t\t\n\t\timage_id = db.Image.insert(image = form.vars.default1,album = form.vars.album_name,owner = name)\n\t\ty = db(db.Albums.album_name == form.vars.album_name).select()[0].images\n\t\tdb(db.Albums.album_name == form.vars.album_name).update(images = y + [image_id])\n\t\tredirect(URL(\'my_albums/\' + session_id))\n\tif form.errors:\n\t\tresponse.title = "sorry the album was not created"\t\n\treturn dict(albums = albums,name = name,images = images,ids = rows,session_id = session_id,form = form)\n\n\n\n\n"""This will display all the images of a paticular album"""\ndef display_album():\n\targs = request.args\n\tsession_id = request.args[0]\n\tr = check(session_id)\n\tif(r == 0):\n\t\tredirect(URL(\'not_logged_in\'))\n\tname = get_name(session_id)\n\talbum_name = request.args[1]\n\towner = request.args[2]\n\talbum_id = request.args[3]\n\tresponse.title = "Welcome " + name\n\timages = []\n\trows = db(db.Albums.id == album_id).select()[0].images\n\tfor j in rows:\n\t\timages.append(db(db.Image.id == j).select()[0].image)\n\trecord = db.Image(request.args(0))\n\tform = SQLFORM(db.Image,record)\n\tif form.accepts(request,session):\n\t\tdb(db.Image.id==form.vars.id).update(album=album_name)\n\t\tdb(db.Image.id==form.vars.id).update(owner=name)\n\t\trows = db(db.Albums.id == album_id).select()[0]\n\t\tx = rows.images\t\t\n\t\tdb(db.Albums.id == album_id).update(images = x + [form.vars.id])\n\t\tredirect(URL(\'display_album/\'+session_id+\'/\'+album_name+\'/\' +owner +\'/\' + album_id ))\n\telif form.errors:\n\t\tresponse.title = "no image selected"\n\treturn dict(form = form,images = images,album_name = album_name,name  = name,owner = owner,session_id = session_id, album_id = album_id)\n\n\n\n\n\n"""This will display the clicked image and the comments on that image"""\ndef display_image():\n\targs = request.args\n\tsession_id = request.args[0]\n\tr = check(session_id)\n\tif(r == 0):\n\t\tredirect(URL(\'not_logged_in\'))\n\tname = get_name(session_id)\n\tresponse.title = "Welcome "+ name\n\n\talbum = request.args[1]\n\timage = request.args[2]\n\towner = request.args[3]\n\talbum_id = request.args[4]\n\n\talbum_name = album\n\n\trow = db(db.Image.image == image).select()[0]\n\towner = row.owner\n\timage_id1 = row.id\n\t\n\tnew = db((db.Image.album == album) & (db.Image.id > row.id).select(orderby=db.Image.id)[0]\t\n\tnew2 = db((db.Image.album == album) & (db.Image.id < row.id).select(orderby=~db.Image.id)[0]\t\n\t\n\tmin_id = db(db.Image.album == album).select(db.Image.id.min())\n\tmax_id = db(db.Image.album == album).select(db.Image.id.max())\n\t\n\t\n\t\t\n\timageid_next = new.id\n\timageid_prev = new2.id\n\n\t"""if imageid_prev < min_id:\n\t\timageid_prev = min_id\n\tif imageid_next > max_id:\n\t\timageid_next = max_id\n\t"""\n\tprevimage = db(db.Image.id == imageid_prev).select()[0]\n\tprevimage = previmage.image\n\tnextimage = db(db.Image.id == imageid_next).select()[0]\n\tnextimage = nextimage.image\n\n\trecord = db.register(request.args(0))\n\tform = SQLFORM(db.Comments,record)\n\n\tform.custom.widget.comment[\'_id\'] = "feedback"\n\tform.custom.widget.comment[\'_placeholder\'] = "Comment here ..."\n\tform.custom.widget.comment[\'_type\'] = "textarea"\n\t\n\tform.custom.submit[\'_id\'] = "postcomment"\n\tform.custom.submit[\'_value\'] = "Post Comment"\t\n\n\tif form.accepts(request,session):\n\t\tdb(db.Comments.id == form.vars.id).update(commentator = name)\n\t\tdb(db.Comments.id == form.vars.id).update(image_id = image_id1)\n\t\tif(owner!=name):\n\t\t\tdb(db.Comments.id == form.vars.id).update(comment_status = 0)\n\t\t\tarr = db(db.register.Email == owner).select()[0].requests\n\t\t\tdb(db.register.Email == owner).update(requests = arr + [form.vars.id])\n\t\telse:\n\t\t\tdb(db.Comments.id == form.vars.id).update(comment_status = 1)\n\trows = db(db.Comments.image_id == image_id1).select()\n\tcommentator = []\n\tcomment = []\n\tfor i in rows:\n\t\tif(int(i.comment_status) == 1):\n\t\t\tcommentator.append(i.commentator)\n\t\t\tcomment.append(i.comment)\n\t\n\tperson_name_first = []\n\tperson_name_last = []\n\n\tfor i in range(0,len(commentator)):\n\t\tperson = db(db.register.Email == commentator[len(commentator)-1]).select()[0].First_Name\n\t\tperson_2 = db(db.register.Email == commentator[len(commentator)-1]).select()[0].Last_Name\n\t\tperson_name_first.append(person)\n\t\tperson_name_last.append(person_2)\n\n\treturn dict(previmage = previmage, nextimage = nextimage, image = image,owner = owner, album_id = album_id, album_name = album_name, form = form,commentator = commentator,comment = comment,session_id = session_id, person_name_first = person_name_first, person_name_last = person_name_last)\n\n\n\n\n"""This will display all the albums whose permission  has been set to public"""\ndef public_albums():\n\trows = db(db.Albums.album_name!=None).select()\n\targs = request.args\n\tsession_id = request.args[0]\n\tr = check(session_id)\n\tif(r == 0):\n\t\tredirect(URL(\'not_logged_in\'))\n\tname = get_name(session_id)\n\talbum_name = []\n\towners = []\n\timages = []\n\tids = []\n\tfor i in rows:\n\t\talbum_name.append(i.album_name)\n\t\timages.append(i.default1)\n\t\towners.append(i.owner)\t\n\t\tids.append(i.id)\t\n\treturn dict(albums = album_name,owners = owners, images = images,name = name,ids = ids,session_id = session_id)\n\n\ndef download():\n        return response.download(request, db)\n\t\n\t\ndef get_name(session_id):\n\treturn db(db.login.session_id == session_id).select()[0].Email\n\n"""This function checks if the given session is valid or not"""\ndef check(session_id):\n\tx = db(db.login.session_id == session_id).select()\n\tif(len(x) == 0):\n\t\treturn 0\n\telse :\n\t\treturn x[0].session_status\n\t\t\ndef not_logged_in():\n\tresponse.title = "Sorry You Are Not Logged In"\n\treturn dict()\n\ndef logout():\n\tsession_id = request.args[0]\n\tx = db(db.login.session_id == session_id).select()\n\tif(len(x) == 0):\n\t\tredirect(URL(\'not_logged_in\'))\n\telse:\n\t\tdb(db.login.session_id == session_id).update(session_status = 0)\n\t\tredirect(URL(\'default\',\'login\'))\n\treturn dict()\n\n"""This function will show all the requests for comments"""\ndef requests():\n\tsession_id = request.args[0]\n\tname = get_name(session_id)\n\trequests = db(db.register.Email == name).select()[0].requests\n\tresponse.title = requests\n\tcomments = []\n\tcommentators = []\n\tids = []\n\tfor i in requests:\n\t\tx = db(db.Comments.id == i).select()[0]\n\t\tcomments.append(x.comment)\n\t\tcommentators.append(x.commentator)\n\t\tids.append(i)\n\treturn dict(session_id = session_id,comments = comments,commentators = commentators,ids = ids)\n\ndef validate_comment():\n\tsession_id = request.args[0]\n\tcomment_id = request.args[1]\n\tdb(db.Comments.id == int(comment_id)).update(comment_status = 1)\n\tx = db(db.Comments.id == comment_id).select()[0]\n\timage_id = x.image_id\n\towner = db(db.Image.id == image_id).select()[0].owner\n\ty = db(db.register.Email == owner).select()[0].requests\n\ty = y.remove(int(comment_id))\n\tdb(db.register.Email == owner).update(requests = y)\n\tredirect(URL(\'requests/\' + session_id) )\n\treturn dict()\n\nresponse._vars=response._caller(display_image)\n'
p7
sS'snapshot'
p8
(dp9
S'exception'
p10
(dp11
S'__getslice__'
p12
S"<method-wrapper '__getslice__' of exceptions.SyntaxError object>"
p13
sS'text'
p14
S"'\\tnew2 = db((db.Image.album == album) & (db.Image.id < row.id).select(orderby=~db.Image.id)[0]\\t\\n'"
p15
sS'__str__'
p16
S"<method-wrapper '__str__' of exceptions.SyntaxError object>"
p17
sS'__reduce__'
p18
S'<built-in method __reduce__ of exceptions.SyntaxError object>'
p19
sS'__dict__'
p20
S'{}'
p21
sS'__sizeof__'
p22
S'<built-in method __sizeof__ of exceptions.SyntaxError object>'
p23
sS'__init__'
p24
S"<method-wrapper '__init__' of exceptions.SyntaxError object>"
p25
sS'__setattr__'
p26
S"<method-wrapper '__setattr__' of exceptions.SyntaxError object>"
p27
sS'__reduce_ex__'
p28
S'<built-in method __reduce_ex__ of exceptions.SyntaxError object>'
p29
sS'__new__'
p30
S'<built-in method __new__ of type object>'
p31
sS'__format__'
p32
S'<built-in method __format__ of exceptions.SyntaxError object>'
p33
sS'__class__'
p34
S"<type 'exceptions.SyntaxError'>"
p35
sS'filename'
p36
S"'/home/user/Documents/web2py/applications/IMAGE_JOURNAL/controllers/default.py'"
p37
sS'lineno'
p38
S'203'
p39
sS'msg'
p40
S"'invalid syntax'"
p41
sS'__doc__'
p42
S"'Invalid syntax.'"
p43
sS'__getitem__'
p44
S"<method-wrapper '__getitem__' of exceptions.SyntaxError object>"
p45
sS'__setstate__'
p46
S'<built-in method __setstate__ of exceptions.SyntaxError object>'
p47
sS'__getattribute__'
p48
S"<method-wrapper '__getattribute__' of exceptions.SyntaxError object>"
p49
sS'print_file_and_line'
p50
S'None'
p51
sS'args'
p52
S"('invalid syntax', ('/home/user/Documents/web2py/applications/IMAGE_JOURNAL/controllers/default.py', 203, 5, '\\tnew2 = db((db.Image.album == album) & (db.Image.id < row.id).select(orderby=~db.Image.id)[0]\\t\\n'))"
p53
sS'__subclasshook__'
p54
S'<built-in method __subclasshook__ of type object>'
p55
sS'offset'
p56
S'5'
sS'__unicode__'
p57
S'<built-in method __unicode__ of exceptions.SyntaxError object>'
p58
sS'__delattr__'
p59
S"<method-wrapper '__delattr__' of exceptions.SyntaxError object>"
p60
sS'__repr__'
p61
S"<method-wrapper '__repr__' of exceptions.SyntaxError object>"
p62
sS'__hash__'
p63
S"<method-wrapper '__hash__' of exceptions.SyntaxError object>"
p64
ssS'evalue'
p65
S'invalid syntax (default.py, line 203)'
p66
sS'request'
p67
cgluon.html
XML_unpickle
p68
(S's\x06_\x00\x00<div><table><tr><td style="font-weight:bold;vertical-align:top;">ajax</td><td style="vertical-align:top;">:</td><td><div>False</div></td></tr><tr><td style="font-weight:bold;vertical-align:top;">application</td><td style="vertical-align:top;">:</td><td><div>IMAGE_JOURNAL</div></td></tr><tr><td style="font-weight:bold;vertical-align:top;">args</td><td style="vertical-align:top;">:</td><td><div><table><tr><td><div>2304587</div></td></tr><tr><td><div>new_test</div></td></tr><tr><td><div>Image.image.8af809efca9c31e2.757365726163636f756e742e706e67.png</div></td></tr><tr><td><div>vineet_gupta</div></td></tr><tr><td><div>59</div></td></tr></table></div></td></tr><tr><td style="font-weight:bold;vertical-align:top;">cid</td><td style="vertical-align:top;">:</td><td><div>None</div></td></tr><tr><td style="font-weight:bold;vertical-align:top;">client</td><td style="vertical-align:top;">:</td><td><div>127.0.0.1</div></td></tr><tr><td style="font-weight:bold;vertical-align:top;">controller</td><td style="vertical-align:top;">:</td><td><div>default</div></td></tr><tr><td style="font-weight:bold;vertical-align:top;">cookies</td><td style="vertical-align:top;">:</td><td><div><table><tr><td style="font-weight:bold;vertical-align:top;">session_id_admin</td><td style="vertical-align:top;">:</td><td><div>127.0.0.1-3514a453-d846-4ae1-9c03-97268ec68792<table><tr><td style="font-weight:bold;vertical-align:top;">comment</td><td style="vertical-align:top;">:</td><td><div></div></td></tr><tr><td style="font-weight:bold;vertical-align:top;">domain</td><td style="vertical-align:top;">:</td><td><div></div></td></tr><tr><td style="font-weight:bold;vertical-align:top;">expires</td><td style="vertical-align:top;">:</td><td><div></div></td></tr><tr><td style="font-weight:bold;vertical-align:top;">httponly</td><td style="vertical-align:top;">:</td><td><div></div></td></tr><tr><td style="font-weight:bold;vertical-align:top;">max-age</td><td style="vertical-align:top;">:</td><td><div></div></td></tr><tr><td style="font-weight:bold;vertical-align:top;">path</td><td style="vertical-align:top;">:</td><td><div></div></td></tr><tr><td style="font-weight:bold;vertical-align:top;">secure</td><td style="vertical-align:top;">:</td><td><div></div></td></tr><tr><td style="font-weight:bold;vertical-align:top;">version</td><td style="vertical-align:top;">:</td><td><div></div></td></tr></table></div></td></tr><tr><td style="font-weight:bold;vertical-align:top;">session_id_image_journal</td><td style="vertical-align:top;">:</td><td><div>127.0.0.1-536bfc0d-74c1-477a-8d69-057d1f8b30f8<table><tr><td style="font-weight:bold;vertical-align:top;">comment</td><td style="vertical-align:top;">:</td><td><div></div></td></tr><tr><td style="font-weight:bold;vertical-align:top;">domain</td><td style="vertical-align:top;">:</td><td><div></div></td></tr><tr><td style="font-weight:bold;vertical-align:top;">expires</td><td style="vertical-align:top;">:</td><td><div></div></td></tr><tr><td style="font-weight:bold;vertical-align:top;">httponly</td><td style="vertical-align:top;">:</td><td><div></div></td></tr><tr><td style="font-weight:bold;vertical-align:top;">max-age</td><td style="vertical-align:top;">:</td><td><div></div></td></tr><tr><td style="font-weight:bold;vertical-align:top;">path</td><td style="vertical-align:top;">:</td><td><div></div></td></tr><tr><td style="font-weight:bold;vertical-align:top;">secure</td><td style="vertical-align:top;">:</td><td><div></div></td></tr><tr><td style="font-weight:bold;vertical-align:top;">version</td><td style="vertical-align:top;">:</td><td><div></div></td></tr></table></div></td></tr><tr><td style="font-weight:bold;vertical-align:top;">session_id_welcome</td><td style="vertical-align:top;">:</td><td><div>127.0.0.1-86d57a77-f37c-41c1-b0e7-eae9c5b90741<table><tr><td style="font-weight:bold;vertical-align:top;">comment</td><td style="vertical-align:top;">:</td><td><div></div></td></tr><tr><td style="font-weight:bold;vertical-align:top;">domain</td><td style="vertical-align:top;">:</td><td><div></div></td></tr><tr><td style="font-weight:bold;vertical-align:top;">expires</td><td style="vertical-align:top;">:</td><td><div></div></td></tr><tr><td style="font-weight:bold;vertical-align:top;">httponly</td><td style="vertical-align:top;">:</td><td><div></div></td></tr><tr><td style="font-weight:bold;vertical-align:top;">max-age</td><td style="vertical-align:top;">:</td><td><div></div></td></tr><tr><td style="font-weight:bold;vertical-align:top;">path</td><td style="vertical-align:top;">:</td><td><div></div></td></tr><tr><td style="font-weight:bold;vertical-align:top;">secure</td><td style="vertical-align:top;">:</td><td><div></div></td></tr><tr><td style="font-weight:bold;vertical-align:top;">version</td><td style="vertical-align:top;">:</td><td><div></div></td></tr></table></div></td></tr></table></div></td></tr><tr><td style="font-weight:bold;vertical-align:top;">env</td><td style="vertical-align:top;">:</td><td><div><table><tr><td style="font-weight:bold;vertical-align:top;">HTTP_ACCEPT</td><td style="vertical-align:top;">:</td><td><div>text/html,application/xhtml+xml,application/xml;q=0.9,*/*;q=0.8</div></td></tr><tr><td style="font-weight:bold;vertical-align:top;">HTTP_ACCEPT_ENCODING</td><td style="vertical-align:top;">:</td><td><div>gzip, deflate</div></td></tr><tr><td style="font-weight:bold;vertical-align:top;">HTTP_ACCEPT_LANGUAGE</td><td style="vertical-align:top;">:</td><td><div>en-US,en;q=0.5</div></td></tr><tr><td style="font-weight:bold;vertical-align:top;">HTTP_CACHE_CONTROL</td><td style="vertical-align:top;">:</td><td><div>max-age=0</div></td></tr><tr><td style="font-weight:bold;vertical-align:top;">HTTP_CONNECTION</td><td style="vertical-align:top;">:</td><td><div>keep-alive</div></td></tr><tr><td style="font-weight:bold;vertical-align:top;">HTTP_COOKIE</td><td style="vertical-align:top;">:</td><td><div>session_id_image_journal=127.0.0.1-536bfc0d-74c1-477a-8d69-057d1f8b30f8; session_id_welcome=127.0.0.1-86d57a77-f37c-41c1-b0e7-eae9c5b90741; session_id_admin=127.0.0.1-3514a453-d846-4ae1-9c03-97268ec68792</div></td></tr><tr><td style="font-weight:bold;vertical-align:top;">HTTP_HOST</td><td style="vertical-align:top;">:</td><td><div>127.0.0.1:8000</div></td></tr><tr><td style="font-weight:bold;vertical-align:top;">HTTP_REFERER</td><td style="vertical-align:top;">:</td><td><div>http://127.0.0.1:8000/IMAGE_JOURNAL/default/display_image/2304587/new_test/Image.image.9ad9fb39fa1b5159.76616962686176.txt/vineet_gupta/59</div></td></tr><tr><td style="font-weight:bold;vertical-align:top;">HTTP_USER_AGENT</td><td style="vertical-align:top;">:</td><td><div>Mozilla/5.0 (X11; Ubuntu; Linux x86_64; rv:28.0) Gecko/20100101 Firefox/28.0</div></td></tr><tr><td style="font-weight:bold;vertical-align:top;">PATH_INFO</td><td style="vertical-align:top;">:</td><td><div>/IMAGE_JOURNAL/default/display_image/2304587/new_test/Image.image.8af809efca9c31e2.757365726163636f756e742e706e67.png/vineet_gupta/59</div></td></tr><tr><td style="font-weight:bold;vertical-align:top;">QUERY_STRING</td><td style="vertical-align:top;">:</td><td><div></div></td></tr><tr><td style="font-weight:bold;vertical-align:top;">REMOTE_ADDR</td><td style="vertical-align:top;">:</td><td><div>127.0.0.1</div></td></tr><tr><td style="font-weight:bold;vertical-align:top;">REMOTE_PORT</td><td style="vertical-align:top;">:</td><td><div>53462</div></td></tr><tr><td style="font-weight:bold;vertical-align:top;">REQUEST_METHOD</td><td style="vertical-align:top;">:</td><td><div>GET</div></td></tr><tr><td style="font-weight:bold;vertical-align:top;">SCRIPT_NAME</td><td style="vertical-align:top;">:</td><td><div></div></td></tr><tr><td style="font-weight:bold;vertical-align:top;">SERVER_NAME</td><td style="vertical-align:top;">:</td><td><div>user-Inspiron-5521</div></td></tr><tr><td style="font-weight:bold;vertical-align:top;">SERVER_PORT</td><td style="vertical-align:top;">:</td><td><div>8000</div></td></tr><tr><td style="font-weight:bold;vertical-align:top;">SERVER_PROTOCOL</td><td style="vertical-align:top;">:</td><td><div>HTTP/1.1</div></td></tr><tr><td style="font-weight:bold;vertical-align:top;">SERVER_SOFTWARE</td><td style="vertical-align:top;">:</td><td><div>Rocket 1.2.6</div></td></tr><tr><td style="font-weight:bold;vertical-align:top;">app_folders</td><td style="vertical-align:top;">:</td><td><div>set([&#x27;/home/user/Documents/web2py/applications/welcome/&#x27;, &#x27;/home/user/Documents/web2py/applications/admin/&#x27;, &#x27;/home/user/Documents/web2py/applications/IMAGE_JOURNAL/&#x27;])</div></td></tr><tr><td style="font-weight:bold;vertical-align:top;">applications_parent</td><td style="vertical-align:top;">:</td><td><div>/home/user/Documents/web2py</div></td></tr><tr><td style="font-weight:bold;vertical-align:top;">cmd_args</td><td style="vertical-align:top;">:</td><td><div><table></table></div></td></tr><tr><td style="font-weight:bold;vertical-align:top;">cmd_options</td><td style="vertical-align:top;">:</td><td><div>&lt;Values at 0x273fb00: {&#x27;verbose&#x27;: False, &#x27;ip&#x27;: &#x27;127.0.0.1&#x27;, &#x27;debuglevel&#x27;: 30, &#x27;with_scheduler&#x27;: False, &#x27;ips&#x27;: [&#x27;127.0.1.1&#x27;], &#x27;shutdown_timeout&#x27;: 5, &#x27;taskbar&#x27;: False, &#x27;with_coverage&#x27;: False, &#x27;port&#x27;: 8000, &#x27;maxthreads&#x27;: None, &#x27;softcron&#x27;: False, &#x27;server_name&#x27;: &#x27;user-Inspiron-5521&#x27;, &#x27;bpython&#x27;: False, &#x27;nogui&#x27;: False, &#x27;pid_filename&#x27;: &#x27;httpserver.pid&#x27;, &#x27;extcron&#x27;: False, &#x27;runcron&#x27;: False, &#x27;run_system_tests&#x27;: False, &#x27;test&#x27;: None, &#x27;folder&#x27;: &#x27;/home/user/Documents/web2py&#x27;, &#x27;config&#x27;: &#x27;&#x27;, &#x27;minthreads&#x27;: None, &#x27;shell&#x27;: None, &#x27;run&#x27;: &#x27;&#x27;, &#x27;log_filename&#x27;: &#x27;httpserver.log&#x27;, &#x27;profiler_dir&#x27;: None, &#x27;args&#x27;: [&#x27;&#x27;], &#x27;socket_timeout&#x27;: 5, &#x27;ssl_ca_certificate&#x27;: None, &#x27;scheduler&#x27;: None, &#x27;interfaces&#x27;: None, &#x27;ssl_private_key&#x27;: &#x27;&#x27;, &#x27;scheduler_groups&#x27;: None, &#x27;password&#x27;: &#x27;hello&#x27;, &#x27;request_queue_size&#x27;: 5, &#x27;ssl_certificate&#x27;: &#x27;&#x27;, &#x27;cronjob&#x27;: False, &#x27;numthreads&#x27;: None, &#x27;quiet&#x27;: False, &#x27;import_models&#x27;: False, &#x27;timeout&#x27;: 10, &#x27;plain&#x27;: False, &#x27;nobanner&#x27;: False}&gt;</div></td></tr><tr><td style="font-weight:bold;vertical-align:top;">db_sessions</td><td style="vertical-align:top;">:</td><td><div>set([])</div></td></tr><tr><td style="font-weight:bold;vertical-align:top;">debugging</td><td style="vertical-align:top;">:</td><td><div>False</div></td></tr><tr><td style="font-weight:bold;vertical-align:top;">gluon_parent</td><td style="vertical-align:top;">:</td><td><div>/home/user/Documents/web2py</div></td></tr><tr><td style="font-weight:bold;vertical-align:top;">http_accept</td><td style="vertical-align:top;">:</td><td><div>text/html,application/xhtml+xml,application/xml;q=0.9,*/*;q=0.8</div></td></tr><tr><td style="font-weight:bold;vertical-align:top;">http_accept_encoding</td><td style="vertical-align:top;">:</td><td><div>gzip, deflate</div></td></tr><tr><td style="font-weight:bold;vertical-align:top;">http_accept_language</td><td style="vertical-align:top;">:</td><td><div>en-US,en;q=0.5</div></td></tr><tr><td style="font-weight:bold;vertical-align:top;">http_cache_control</td><td style="vertical-align:top;">:</td><td><div>max-age=0</div></td></tr><tr><td style="font-weight:bold;vertical-align:top;">http_connection</td><td style="vertical-align:top;">:</td><td><div>keep-alive</div></td></tr><tr><td style="font-weight:bold;vertical-align:top;">http_cookie</td><td style="vertical-align:top;">:</td><td><div>session_id_image_journal=127.0.0.1-536bfc0d-74c1-477a-8d69-057d1f8b30f8; session_id_welcome=127.0.0.1-86d57a77-f37c-41c1-b0e7-eae9c5b90741; session_id_admin=127.0.0.1-3514a453-d846-4ae1-9c03-97268ec68792</div></td></tr><tr><td style="font-weight:bold;vertical-align:top;">http_host</td><td style="vertical-align:top;">:</td><td><div>127.0.0.1:8000</div></td></tr><tr><td style="font-weight:bold;vertical-align:top;">http_referer</td><td style="vertical-align:top;">:</td><td><div>http://127.0.0.1:8000/IMAGE_JOURNAL/default/display_image/2304587/new_test/Image.image.9ad9fb39fa1b5159.76616962686176.txt/vineet_gupta/59</div></td></tr><tr><td style="font-weight:bold;vertical-align:top;">http_user_agent</td><td style="vertical-align:top;">:</td><td><div>Mozilla/5.0 (X11; Ubuntu; Linux x86_64; rv:28.0) Gecko/20100101 Firefox/28.0</div></td></tr><tr><td style="font-weight:bold;vertical-align:top;">is_jython</td><td style="vertical-align:top;">:</td><td><div>False</div></td></tr><tr><td style="font-weight:bold;vertical-align:top;">is_pypy</td><td style="vertical-align:top;">:</td><td><div>False</div></td></tr><tr><td style="font-weight:bold;vertical-align:top;">is_source</td><td style="vertical-align:top;">:</td><td><div>True</div></td></tr><tr><td style="font-weight:bold;vertical-align:top;">local_hosts</td><td style="vertical-align:top;">:</td><td><div><table><tr><td><div>user-Inspiron-5521</div></td></tr><tr><td><div>::1</div></td></tr><tr><td><div>127.0.1.1</div></td></tr><tr><td><div>::ffff:127.0.0.1</div></td></tr><tr><td><div>127.0.0.1</div></td></tr></table></div></td></tr><tr><td style="font-weight:bold;vertical-align:top;">path_info</td><td style="vertical-align:top;">:</td><td><div>/IMAGE_JOURNAL/default/display_image/2304587/new_test/Image.image.8af809efca9c31e2.757365726163636f756e742e706e67.png/vineet_gupta/59</div></td></tr><tr><td style="font-weight:bold;vertical-align:top;">query_string</td><td style="vertical-align:top;">:</td><td><div></div></td></tr><tr><td style="font-weight:bold;vertical-align:top;">remote_addr</td><td style="vertical-align:top;">:</td><td><div>127.0.0.1</div></td></tr><tr><td style="font-weight:bold;vertical-align:top;">remote_port</td><td style="vertical-align:top;">:</td><td><div>53462</div></td></tr><tr><td style="font-weight:bold;vertical-align:top;">request_method</td><td style="vertical-align:top;">:</td><td><div>GET</div></td></tr><tr><td style="font-weight:bold;vertical-align:top;">request_uri</td><td style="vertical-align:top;">:</td><td><div>/IMAGE_JOURNAL/default/display_image/2304587/new_test/Image.image.8af809efca9c31e2.757365726163636f756e742e706e67.png/vineet_gupta/59</div></td></tr><tr><td style="font-weight:bold;vertical-align:top;">script_name</td><td style="vertical-align:top;">:</td><td><div></div></td></tr><tr><td style="font-weight:bold;vertical-align:top;">server_name</td><td style="vertical-align:top;">:</td><td><div>user-Inspiron-5521</div></td></tr><tr><td style="font-weight:bold;vertical-align:top;">server_port</td><td style="vertical-align:top;">:</td><td><div>8000</div></td></tr><tr><td style="font-weight:bold;vertical-align:top;">server_protocol</td><td style="vertical-align:top;">:</td><td><div>HTTP/1.1</div></td></tr><tr><td style="font-weight:bold;vertical-align:top;">server_software</td><td style="vertical-align:top;">:</td><td><div>Rocket 1.2.6</div></td></tr><tr><td style="font-weight:bold;vertical-align:top;">web2py_path</td><td style="vertical-align:top;">:</td><td><div>/home/user/Documents/web2py</div></td></tr><tr><td style="font-weight:bold;vertical-align:top;">web2py_version</td><td style="vertical-align:top;">:</td><td><div>2.9.4-stable+timestamp.2014.03.05.04.44.09</div></td></tr><tr><td style="font-weight:bold;vertical-align:top;">wsgi.errors</td><td style="vertical-align:top;">:</td><td><div>&lt;open file &#x27;&lt;stderr&gt;&#x27;, mode &#x27;w&#x27; at 0x7f1377f441e0&gt;</div></td></tr><tr><td style="font-weight:bold;vertical-align:top;">wsgi.file_wrapper</td><td style="vertical-align:top;">:</td><td><div>&lt;class wsgiref.util.FileWrapper at 0x2689bb0&gt;</div></td></tr><tr><td style="font-weight:bold;vertical-align:top;">wsgi.input</td><td style="vertical-align:top;">:</td><td><div>&lt;socket._fileobject object at 0x7f1364908150&gt;</div></td></tr><tr><td style="font-weight:bold;vertical-align:top;">wsgi.multiprocess</td><td style="vertical-align:top;">:</td><td><div>False</div></td></tr><tr><td style="font-weight:bold;vertical-align:top;">wsgi.multithread</td><td style="vertical-align:top;">:</td><td><div>True</div></td></tr><tr><td style="font-weight:bold;vertical-align:top;">wsgi.run_once</td><td style="vertical-align:top;">:</td><td><div>False</div></td></tr><tr><td style="font-weight:bold;vertical-align:top;">wsgi.url_scheme</td><td style="vertical-align:top;">:</td><td><div>http</div></td></tr><tr><td style="font-weight:bold;vertical-align:top;">wsgi.version</td><td style="vertical-align:top;">:</td><td><div><table><tr><td><div>1</div></td></tr><tr><td><div>0</div></td></tr></table></div></td></tr><tr><td style="font-weight:bold;vertical-align:top;">wsgi_errors</td><td style="vertical-align:top;">:</td><td><div>&lt;open file &#x27;&lt;stderr&gt;&#x27;, mode &#x27;w&#x27; at 0x7f1377f441e0&gt;</div></td></tr><tr><td style="font-weight:bold;vertical-align:top;">wsgi_file_wrapper</td><td style="vertical-align:top;">:</td><td><div>&lt;class wsgiref.util.FileWrapper at 0x2689bb0&gt;</div></td></tr><tr><td style="font-weight:bold;vertical-align:top;">wsgi_input</td><td style="vertical-align:top;">:</td><td><div>&lt;socket._fileobject object at 0x7f1364908150&gt;</div></td></tr><tr><td style="font-weight:bold;vertical-align:top;">wsgi_multiprocess</td><td style="vertical-align:top;">:</td><td><div>False</div></td></tr><tr><td style="font-weight:bold;vertical-align:top;">wsgi_multithread</td><td style="vertical-align:top;">:</td><td><div>True</div></td></tr><tr><td style="font-weight:bold;vertical-align:top;">wsgi_run_once</td><td style="vertical-align:top;">:</td><td><div>False</div></td></tr><tr><td style="font-weight:bold;vertical-align:top;">wsgi_url_scheme</td><td style="vertical-align:top;">:</td><td><div>http</div></td></tr><tr><td style="font-weight:bold;vertical-align:top;">wsgi_version</td><td style="vertical-align:top;">:</td><td><div><table><tr><td><div>1</div></td></tr><tr><td><div>0</div></td></tr></table></div></td></tr></table></div></td></tr><tr><td style="font-weight:bold;vertical-align:top;">extension</td><td style="vertical-align:top;">:</td><td><div>html</div></td></tr><tr><td style="font-weight:bold;vertical-align:top;">folder</td><td style="vertical-align:top;">:</td><td><div>/home/user/Documents/web2py/applications/IMAGE_JOURNAL/</div></td></tr><tr><td style="font-weight:bold;vertical-align:top;">function</td><td style="vertical-align:top;">:</td><td><div>display_image</div></td></tr><tr><td style="font-weight:bold;vertical-align:top;">global_settings</td><td style="vertical-align:top;">:</td><td><div><table><tr><td style="font-weight:bold;vertical-align:top;">app_folders</td><td style="vertical-align:top;">:</td><td><div>set([&#x27;/home/user/Documents/web2py/applications/welcome/&#x27;, &#x27;/home/user/Documents/web2py/applications/admin/&#x27;, &#x27;/home/user/Documents/web2py/applications/IMAGE_JOURNAL/&#x27;])</div></td></tr><tr><td style="font-weight:bold;vertical-align:top;">applications_parent</td><td style="vertical-align:top;">:</td><td><div>/home/user/Documents/web2py</div></td></tr><tr><td style="font-weight:bold;vertical-align:top;">cmd_args</td><td style="vertical-align:top;">:</td><td><div><table></table></div></td></tr><tr><td style="font-weight:bold;vertical-align:top;">cmd_options</td><td style="vertical-align:top;">:</td><td><div>&lt;Values at 0x273fb00: {&#x27;verbose&#x27;: False, &#x27;ip&#x27;: &#x27;127.0.0.1&#x27;, &#x27;debuglevel&#x27;: 30, &#x27;with_scheduler&#x27;: False, &#x27;ips&#x27;: [&#x27;127.0.1.1&#x27;], &#x27;shutdown_timeout&#x27;: 5, &#x27;taskbar&#x27;: False, &#x27;with_coverage&#x27;: False, &#x27;port&#x27;: 8000, &#x27;maxthreads&#x27;: None, &#x27;softcron&#x27;: False, &#x27;server_name&#x27;: &#x27;user-Inspiron-5521&#x27;, &#x27;bpython&#x27;: False, &#x27;nogui&#x27;: False, &#x27;pid_filename&#x27;: &#x27;httpserver.pid&#x27;, &#x27;extcron&#x27;: False, &#x27;runcron&#x27;: False, &#x27;run_system_tests&#x27;: False, &#x27;test&#x27;: None, &#x27;folder&#x27;: &#x27;/home/user/Documents/web2py&#x27;, &#x27;config&#x27;: &#x27;&#x27;, &#x27;minthreads&#x27;: None, &#x27;shell&#x27;: None, &#x27;run&#x27;: &#x27;&#x27;, &#x27;log_filename&#x27;: &#x27;httpserver.log&#x27;, &#x27;profiler_dir&#x27;: None, &#x27;args&#x27;: [&#x27;&#x27;], &#x27;socket_timeout&#x27;: 5, &#x27;ssl_ca_certificate&#x27;: None, &#x27;scheduler&#x27;: None, &#x27;interfaces&#x27;: None, &#x27;ssl_private_key&#x27;: &#x27;&#x27;, &#x27;scheduler_groups&#x27;: None, &#x27;password&#x27;: &#x27;hello&#x27;, &#x27;request_queue_size&#x27;: 5, &#x27;ssl_certificate&#x27;: &#x27;&#x27;, &#x27;cronjob&#x27;: False, &#x27;numthreads&#x27;: None, &#x27;quiet&#x27;: False, &#x27;import_models&#x27;: False, &#x27;timeout&#x27;: 10, &#x27;plain&#x27;: False, &#x27;nobanner&#x27;: False}&gt;</div></td></tr><tr><td style="font-weight:bold;vertical-align:top;">db_sessions</td><td style="vertical-align:top;">:</td><td><div>set([])</div></td></tr><tr><td style="font-weight:bold;vertical-align:top;">debugging</td><td style="vertical-align:top;">:</td><td><div>False</div></td></tr><tr><td style="font-weight:bold;vertical-align:top;">gluon_parent</td><td style="vertical-align:top;">:</td><td><div>/home/user/Documents/web2py</div></td></tr><tr><td style="font-weight:bold;vertical-align:top;">is_jython</td><td style="vertical-align:top;">:</td><td><div>False</div></td></tr><tr><td style="font-weight:bold;vertical-align:top;">is_pypy</td><td style="vertical-align:top;">:</td><td><div>False</div></td></tr><tr><td style="font-weight:bold;vertical-align:top;">is_source</td><td style="vertical-align:top;">:</td><td><div>True</div></td></tr><tr><td style="font-weight:bold;vertical-align:top;">local_hosts</td><td style="vertical-align:top;">:</td><td><div><table><tr><td><div>user-Inspiron-5521</div></td></tr><tr><td><div>::1</div></td></tr><tr><td><div>127.0.1.1</div></td></tr><tr><td><div>::ffff:127.0.0.1</div></td></tr><tr><td><div>127.0.0.1</div></td></tr></table></div></td></tr><tr><td style="font-weight:bold;vertical-align:top;">web2py_version</td><td style="vertical-align:top;">:</td><td><div>2.9.4-stable+timestamp.2014.03.05.04.44.09</div></td></tr></table></div></td></tr><tr><td style="font-weight:bold;vertical-align:top;">is_https</td><td style="vertical-align:top;">:</td><td><div>False</div></td></tr><tr><td style="font-weight:bold;vertical-align:top;">is_local</td><td style="vertical-align:top;">:</td><td><div>True</div></td></tr><tr><td style="font-weight:bold;vertical-align:top;">is_restful</td><td style="vertical-align:top;">:</td><td><div>False</div></td></tr><tr><td style="font-weight:bold;vertical-align:top;">now</td><td style="vertical-align:top;">:</td><td><div>datetime.datetime(2014, 4, 9, 3, 56, 24, 615352)</div></td></tr><tr><td style="font-weight:bold;vertical-align:top;">raw_args</td><td style="vertical-align:top;">:</td><td><div>2304587/new_test/Image.image.8af809efca9c31e2.757365726163636f756e742e706e67.png/vineet_gupta/59</div></td></tr><tr><td style="font-weight:bold;vertical-align:top;">raw_extension</td><td style="vertical-align:top;">:</td><td><div>None</div></td></tr><tr><td style="font-weight:bold;vertical-align:top;">url</td><td style="vertical-align:top;">:</td><td><div>/IMAGE_JOURNAL/default/display_image/2304587/new_test/Image.image.8af809efca9c31e2.757365726163636f756e742e706e67.png/vineet_gupta/59</div></td></tr><tr><td style="font-weight:bold;vertical-align:top;">utcnow</td><td style="vertical-align:top;">:</td><td><div>datetime.datetime(2014, 4, 8, 22, 26, 24, 615422)</div></td></tr><tr><td style="font-weight:bold;vertical-align:top;">uuid</td><td style="vertical-align:top;">:</td><td><div>IMAGE_JOURNAL/127.0.0.1.2014-04-09.03-56-24.685e1efc-be5a-4d3d-8c17-37943ad3b4e6</div></td></tr><tr><td style="font-weight:bold;vertical-align:top;">wsgi</td><td style="vertical-align:top;">:</td><td><div>&lt;gluon.main.LazyWSGI object at 0x7f135c393950&gt;</div></td></tr></table></div>'
tRp69
sS'frames'
p70
(lp71
(dp72
S'file'
p73
S'/home/user/Documents/web2py/gluon/restricted.py'
p74
sS'dump'
p75
(dp76
S'code'
p77
S'\'"""This is the registration controller"""\\ndef re...\\n\\nresponse._vars=response._caller(display_image)\\n\''
p78
sS'layer'
p79
S"'/home/user/Documents/web2py/applications/IMAGE_JOURNAL/controllers/default.py'"
p80
sS'global compile2'
p81
S'<function compile2>'
p82
sS'ccode'
p83
S'undefined'
p84
ssS'lnum'
p85
I216
sS'lines'
p86
(dp87
I211
S"    environment['__name__'] = '__restricted__'"
p88
sI212
S'    try:'
p89
sI213
S'        if isinstance(code, types.CodeType):'
p90
sI214
S'            ccode = code'
p91
sI215
S'        else:'
p92
sI216
S'            ccode = compile2(code, layer)'
p93
sI217
S'        exec ccode in environment'
p94
sI218
S'    except HTTP:'
p95
sI219
S'        raise'
p96
sI220
S'    except RestrictedError:'
p97
ssS'call'
p98
S'(code=\'"""This is the registration controller"""\\ndef re...\\n\\nresponse._vars=response._caller(display_image)\\n\', environment={\'A\': <class \'gluon.html.A\'>, \'ANY_OF\': <class \'gluon.validators.ANY_OF\'>, \'B\': <class \'gluon.html.B\'>, \'BEAUTIFY\': <class \'gluon.html.BEAUTIFY\'>, \'BODY\': <class \'gluon.html.BODY\'>, \'BR\': <class \'gluon.html.BR\'>, \'BUTTON\': <class \'gluon.html.BUTTON\'>, \'CAT\': <class \'gluon.html.CAT\'>, \'CENTER\': <class \'gluon.html.CENTER\'>, \'CLEANUP\': <class \'gluon.validators.CLEANUP\'>, ...}, layer=\'/home/user/Documents/web2py/applications/IMAGE_JOURNAL/controllers/default.py\')'
p99
sS'func'
p100
S'restricted'
p101
sa(dp102
g73
S'/home/user/Documents/web2py/gluon/restricted.py'
p103
sg75
(dp104
S'builtincompile'
p105
S'<built-in function compile>'
p106
sS'code'
p107
S'\'"""This is the registration controller"""\\ndef re...\\n\\nresponse._vars=response._caller(display_image)\\n\''
p108
sS'code.rstrip'
p109
S'<built-in method rstrip of str object>'
p110
sS').replace'
p111
g84
sS'layer'
p112
S"'/home/user/Documents/web2py/applications/IMAGE_JOURNAL/controllers/default.py'"
p113
ssg85
I199
sg86
(dp114
I194
S''
sI195
S'def compile2(code, layer):'
p115
sI196
S'    """'
p116
sI197
S"    The +'\\n' is necessary else compile fails when code ends in a comment."
p117
sI198
S'    """'
p118
sI199
S"    return compile(code.rstrip().replace('\\r\\n', '\\n') + '\\n', layer, 'exec')"
p119
sI200
S''
sI201
S''
sI202
S"def restricted(code, environment=None, layer='Unknown'):"
p120
sI203
S'    """'
p121
ssg98
S'(code=\'"""This is the registration controller"""\\ndef re...\\n\\nresponse._vars=response._caller(display_image)\\n\', layer=\'/home/user/Documents/web2py/applications/IMAGE_JOURNAL/controllers/default.py\')'
p122
sg100
S'compile2'
p123
sasS'pyver'
p124
S'Python 2.7.5+: /usr/bin/python (prefix: /usr)'
p125
sS'session'
p126
g68
(S's6\x01\x00\x00<div><table><tr><td style="font-weight:bold;vertical-align:top;">last_orderby</td><td style="vertical-align:top;">:</td><td><div>None</div></td></tr><tr><td style="font-weight:bold;vertical-align:top;">last_query</td><td style="vertical-align:top;">:</td><td><div>db.Image.id&gt;0</div></td></tr></table></div>'
tRp127
sS'etype'
p128
S"<type 'exceptions.SyntaxError'>"
p129
sS'date'
p130
S'Wed Apr  9 03:56:24 2014'
p131
sS'response'
p132
g68
(S's\xf1\x16\x00\x00<div><table><tr><td style="font-weight:bold;vertical-align:top;">body</td><td style="vertical-align:top;">:</td><td><div>&lt;cStringIO.StringO object at 0x7f135c3992d0&gt;</div></td></tr><tr><td style="font-weight:bold;vertical-align:top;">cookies</td><td style="vertical-align:top;">:</td><td><div><table><tr><td style="font-weight:bold;vertical-align:top;">session_id_image_journal</td><td style="vertical-align:top;">:</td><td><div>127.0.0.1-536bfc0d-74c1-477a-8d69-057d1f8b30f8<table><tr><td style="font-weight:bold;vertical-align:top;">comment</td><td style="vertical-align:top;">:</td><td><div></div></td></tr><tr><td style="font-weight:bold;vertical-align:top;">domain</td><td style="vertical-align:top;">:</td><td><div></div></td></tr><tr><td style="font-weight:bold;vertical-align:top;">expires</td><td style="vertical-align:top;">:</td><td><div></div></td></tr><tr><td style="font-weight:bold;vertical-align:top;">httponly</td><td style="vertical-align:top;">:</td><td><div></div></td></tr><tr><td style="font-weight:bold;vertical-align:top;">max-age</td><td style="vertical-align:top;">:</td><td><div></div></td></tr><tr><td style="font-weight:bold;vertical-align:top;">path</td><td style="vertical-align:top;">:</td><td><div>/</div></td></tr><tr><td style="font-weight:bold;vertical-align:top;">secure</td><td style="vertical-align:top;">:</td><td><div></div></td></tr><tr><td style="font-weight:bold;vertical-align:top;">version</td><td style="vertical-align:top;">:</td><td><div></div></td></tr></table></div></td></tr></table></div></td></tr><tr><td style="font-weight:bold;vertical-align:top;">delimiters</td><td style="vertical-align:top;">:</td><td><div><table><tr><td><div>{{</div></td></tr><tr><td><div>}}</div></td></tr></table></div></td></tr><tr><td style="font-weight:bold;vertical-align:top;">files</td><td style="vertical-align:top;">:</td><td><div><table></table></div></td></tr><tr><td style="font-weight:bold;vertical-align:top;">flash</td><td style="vertical-align:top;">:</td><td><div></div></td></tr><tr><td style="font-weight:bold;vertical-align:top;">generic_patterns</td><td style="vertical-align:top;">:</td><td><div><table></table></div></td></tr><tr><td style="font-weight:bold;vertical-align:top;">headers</td><td style="vertical-align:top;">:</td><td><div><table><tr><td style="font-weight:bold;vertical-align:top;">X-Powered-By</td><td style="vertical-align:top;">:</td><td><div>web2py</div></td></tr></table></div></td></tr><tr><td style="font-weight:bold;vertical-align:top;">menu</td><td style="vertical-align:top;">:</td><td><div><table></table></div></td></tr><tr><td style="font-weight:bold;vertical-align:top;">meta</td><td style="vertical-align:top;">:</td><td><div><table></table></div></td></tr><tr><td style="font-weight:bold;vertical-align:top;">models_to_run</td><td style="vertical-align:top;">:</td><td><div><table><tr><td><div>^\\w+\\.py$</div></td></tr><tr><td><div>^default/\\w+\\.py$</div></td></tr><tr><td><div>^default/display_image/\\w+\\.py$</div></td></tr></table></div></td></tr><tr><td style="font-weight:bold;vertical-align:top;">postprocessing</td><td style="vertical-align:top;">:</td><td><div><table></table></div></td></tr><tr><td style="font-weight:bold;vertical-align:top;">session_client</td><td style="vertical-align:top;">:</td><td><div>127.0.0.1</div></td></tr><tr><td style="font-weight:bold;vertical-align:top;">session_cookie_compression_level</td><td style="vertical-align:top;">:</td><td><div>None</div></td></tr><tr><td style="font-weight:bold;vertical-align:top;">session_cookie_expires</td><td style="vertical-align:top;">:</td><td><div>None</div></td></tr><tr><td style="font-weight:bold;vertical-align:top;">session_cookie_key</td><td style="vertical-align:top;">:</td><td><div>None</div></td></tr><tr><td style="font-weight:bold;vertical-align:top;">session_data_name</td><td style="vertical-align:top;">:</td><td><div>session_data_image_journal</div></td></tr><tr><td style="font-weight:bold;vertical-align:top;">session_file</td><td style="vertical-align:top;">:</td><td><div>&lt;open file &#x27;/home/user/Documents/web2py/applications/IMAGE_JOURNAL/sessions/127.0.0.1-536bfc0d-74c1-477a-8d69-057d1f8b30f8&#x27;, mode &#x27;rb+&#x27; at 0x7f13647d5300&gt;</div></td></tr><tr><td style="font-weight:bold;vertical-align:top;">session_filename</td><td style="vertical-align:top;">:</td><td><div>/home/user/Documents/web2py/applications/IMAGE_JOURNAL/sessions/127.0.0.1-536bfc0d-74c1-477a-8d69-057d1f8b30f8</div></td></tr><tr><td style="font-weight:bold;vertical-align:top;">session_hash</td><td style="vertical-align:top;">:</td><td><div>f695f39d674c120679dac2eab0da6f31</div></td></tr><tr><td style="font-weight:bold;vertical-align:top;">session_id</td><td style="vertical-align:top;">:</td><td><div>127.0.0.1-536bfc0d-74c1-477a-8d69-057d1f8b30f8</div></td></tr><tr><td style="font-weight:bold;vertical-align:top;">session_id_name</td><td style="vertical-align:top;">:</td><td><div>session_id_image_journal</div></td></tr><tr><td style="font-weight:bold;vertical-align:top;">session_locked</td><td style="vertical-align:top;">:</td><td><div>True</div></td></tr><tr><td style="font-weight:bold;vertical-align:top;">session_masterapp</td><td style="vertical-align:top;">:</td><td><div>IMAGE_JOURNAL</div></td></tr><tr><td style="font-weight:bold;vertical-align:top;">session_new</td><td style="vertical-align:top;">:</td><td><div>False</div></td></tr><tr><td style="font-weight:bold;vertical-align:top;">session_storage_type</td><td style="vertical-align:top;">:</td><td><div>file</div></td></tr><tr><td style="font-weight:bold;vertical-align:top;">status</td><td style="vertical-align:top;">:</td><td><div>200</div></td></tr><tr><td style="font-weight:bold;vertical-align:top;">view</td><td style="vertical-align:top;">:</td><td><div>default/display_image.html</div></td></tr></table></div>'
tRp133
sS'locals'
p134
(dp135
g4
S"'/home/user/Documents/web2py/applications/IMAGE_JOURNAL/controllers/default.py'"
p136
sg6
S'\'"""This is the registration controller"""\\ndef re...\\n\\nresponse._vars=response._caller(display_image)\\n\''
p137
sssS'traceback'
p138
S'Traceback (most recent call last):\n  File "/home/user/Documents/web2py/gluon/restricted.py", line 216, in restricted\n    ccode = compile2(code, layer)\n  File "/home/user/Documents/web2py/gluon/restricted.py", line 199, in compile2\n    return compile(code.rstrip().replace(\'\\r\\n\', \'\\n\') + \'\\n\', layer, \'exec\')\n  File "/home/user/Documents/web2py/applications/IMAGE_JOURNAL/controllers/default.py", line 203\n    new2 = db((db.Image.album == album) & (db.Image.id < row.id).select(orderby=~db.Image.id)[0]\n       ^\nSyntaxError: invalid syntax\n'
p139
s.