(dp1
S'output'
p2
S"<type 'exceptions.UnboundLocalError'> local variable 'y' referenced before assignment"
p3
sS'layer'
p4
S'C:\\Users\\dell-01\\Downloads\\web2py\\applications\\IMAGE_JOURNAL\\controllers/default.py'
p5
sS'code'
p6
S'"""This is the registration controller"""\ndef register():\n\trecord = db.register(request.args(0))\n\tform = SQLFORM(db.register,record)\n\t\n\tif form.accepts(request,session,hideerror = True):\n\t\t\tresponse.flash = \'Thanks the form has been accepted\'\n\t\t\tredirect(URL(\'default\',\'login\'))\n\telif form.errors:\n\t\tresponse.flash = \'please fill the form correctly\'\n\telse:\n\t\tresponse.flash = \'please fill the form\'\n\treturn dict(form = form,x = form.vars.id)\n\n\n"""This function can be used to see any database. This is only for developer use"""\ndef all_records():\n      grid = SQLFORM.grid(db.Album_by_tag,user_signature=False)\n      return dict(grid = grid)\n\n\n\n\n"""This function can be used to delete all the entries of a database. This is only for developer use"""\ndef delete():\n\tresponse.flash = "records are being deleted"\n\tdb(db.Comments.comment != None).delete()\n\n\n\n"""This is the login function. This will create a session for the logged in user"""\ndef login():\n\timport random\n\tform = SQLFORM(db.login)\n\tform.custom.submit[\'_id\'] = "buttonstyle"\n\tif form.accepts(request,session,hideerror = True):\n\t\tif(form.vars.Password == db(db.register.Email == form.vars.Email).select()[0].Password):\n\t\t\tresponse.flash = "you have successfully logged in"\n\t\t\tx = str(random.randint(1000000,10000000))\n\t\t\tdb(db.login.id == form.vars.id).update(session_id = x, session_status = 1)\n\t\t\tredirect(URL(\'timeline/\'+x))\n\t\telse:\n\t\t\tresponse.flash = "Sorry wrong password"\n\t\t\tname = "Stranger"\n\telif form.errors:\n\t\tsession.flash = "You have to first Register"\n\t\tname = "Guest"\n\t\tredirect(URL(\'register\'))\n\telse:\n\t\tresponse.flash = "Please fill in your login details"\n\t\tname = "Guest"\n\treturn dict(form = form,name = name)\n\n\ndef timeline():\n\tsession_id = request.args[0]\n        r = check(session_id)\n\tif(r == \'0\'):\n\t\tresponse.flash = "hello world"\n\t\tredirect(URL(\'not_logged_in\'))\n\tname = get_name(session_id)\n\t\t\n\trows = db(db.Image.owner == name).select(orderby=~db.Image.id)\n\tids = []\t\n\n\tfor i in rows:\n\t\tr = db(db.Albums.album_name == i.album).select()\n\t\tfor j in r:\n\t\t\tids.append(j.id)\n\tfundates = []\n\t\n\timport datetime\n\tfrom gluon.tools import prettydate\n\n\tfor i in rows:\t\n\t\td = (i.created_on)\n\t\tpretty_d = prettydate(d,T)\n\t\tfundates.append(pretty_d)\t\t\n\n\treturn locals()\n\n\t\n"""This is for the home page of the user"""\ndef user():\n\tsession_id = request.args[0]\n        r = check(session_id)\n\tif(r == \'0\'):\n\t\tresponse.flash = "hello world"\n\t\tredirect(URL(\'not_logged_in\'))\n\tname = get_name(session_id)\n\tresponse.flash = "Welcome " + name\n\treturn dict(name = name,session_id = session_id)\n\n\n\n"""Using this controller the user can add an album in his database"""\ndef add_album():\n\tmsg = "welcome"\n\targs = request.args\n\tsession_id = args[0]\n\tr = check(session_id)\n\tif(r == 0):\n\t\tredirect(URL(\'not_logged_in\'))\n\tname = get_name(session_id)\n\tresponse.flash = "Create Album" + name\t\n\trecord = db.Albums(request.args(0))\n\tform = SQLFORM(db.Albums,record)\n\tif form.accepts(request,session):\n\t\tdb(db.Albums.id == form.vars.id).update(owner = name)\n\t\tx = db(db.register.Email == name).select()[0].albums\n\t\tdb(db.register.Email == name).update(albums = x + [form.vars.id])\n\t\tredirect(URL(\'my_albums/\' + session_id))\t\t\n\tif form.errors:\n\t\tif(len(form.errors) == 1) and (form.errors.default1 == "enter a value"):\n\t\t\tmsg = "hello"\n\treturn dict(form = form,msg = msg,session_id = session_id)\n\n\n\n\n"""This will display all tehe albums of the logged in user"""\ndef my_albums():\n\targs = request.args\n\tsession_id= args[0]\n\tr = check(session_id)\n\tif(r == 0):\n\t\tredirect(URL(\'not_logged_in\'))\n\tname = get_name(session_id)\n\tresponse.flash = "Welcome " + name\n\talbums = []\n\timages = []\n\trows = db(db.register.Email == name).select()[0].albums\t\n\tfor i in rows:\n\t\trow = db(db.Albums.id == i).select()[0]\n\t\talbums.append(row.album_name)\n\t\tif(row.default1!=None):\n\t\t\timages.append(row.default1)\n\t\telse:\n\t\t\timage = db(db.Image.id == 28).select()[0]\n\t\t\timages.append(image)\n\t\t\tconsole.log(image)\n\trecord = db.Albums(request.args(0))\n\t\n\t\n\tform = SQLFORM(db.Albums,record)\n\tif form.accepts(request,session):\n\t\tdb(db.Albums.id == form.vars.id).update(owner = name)\n\t\tdb(db.Albums.id == form.vars.id).update(created_on = request.now)\n\t\tx = db(db.register.Email == name).select()[0].albums\n\t\tdb(db.register.Email == name).update(albums = x + [form.vars.id])\t\t\n\t\timage_id = db.Image.insert(image = form.vars.default1,created_on = request.now, album = form.vars.album_name,owner = name)\n\t\ty = db(db.Albums.id == form.vars.id).select()[0].images\n\t\t#db(db.Albums.id == form.vars.id).update(tags = [])\n\t\tdb(db.Albums.album_name == form.vars.album_name).update(images = y + [image_id])\n\t\tredirect(URL(\'my_albums/\' + session_id))\n\tif form.errors:\n\t\tresponse.flash = "sorry the album was not created"\t\n\treturn dict(albums = albums,name = name,images = images,ids = rows,session_id = session_id,form = form)\n\n\n"""This will display all the images of a paticular album"""\ndef display_album():\n\targs = request.args\n\tsession_id = request.args[0]\n\tr = check(session_id)\n\tif(r == 0):\n\t\tredirect(URL(\'not_logged_in\'))\n\tname = get_name(session_id)\n\talbum_name = request.args[1]\n\towner = request.args[2]\n\talbum_id = request.args[3]\n\tresponse.flash = "Welcome " + name\n\timages = []\n\trows = db(db.Albums.id == album_id).select()[0].images\n\tfor j in rows:\n\t\timages.append(db(db.Image.id == j).select()[0].image)\n\trecord = db.Image(request.args(0))\n\t\n\tform = SQLFORM(db.Image,record)\n\tif form.accepts(request,session):\n\t\tdb(db.Image.id==form.vars.id).update(album=album_name)\n\t\tdb(db.Image.id==form.vars.id).update(owner=name)\n\t\tdb(db.Image.id==form.vars.id).update(created_on=request.now)\n\t\trows = db(db.Albums.id == album_id).select()[0]\n\t\tx = rows.images\t\t\n\t\tdb(db.Albums.id == album_id).update(images = x + [form.vars.id])\n\t\tredirect(URL(\'display_album/\'+session_id+\'/\'+album_name+\'/\' +owner +\'/\' + album_id ))\n\telif form.errors:\n\t\tresponse.flash = "no image selected"\n\trecord2 = db.Tags(request.args(0))\n\tform2 = SQLFORM(db.Tags,record2)\n\tform2.custom.widget.tag[\'_id\'] = "tag_id"\n\tform2.custom.submit.update(_id="upload3",_value="Tag It")\n\t\n\tif form2.accepts(request,session):\n\t\tx = db(db.Albums.id == album_id).select()[0].tags\n\t\tif form2.vars.tag not in db(db.Albums.id == album_id).select()[0].tags:\n\t\t\tdb(db.Albums.id == album_id).update(tags = x + [form2.vars.tag])\n\t\t\tc = db(db.Album_by_tag.Tag == form2.vars.tag).count()\t\t\t\n\t\t\tif c == 0:\n\t\t\t\tdb.Album_by_tag.insert(Tag = form2.vars.tag,albums = [])\t\t\t\t\n\t\t\ty = db(db.Album_by_tag.Tag == form2.vars.tag).select()[0].albums\n\t\t\t\n\t\tif((int(album_id) in y) == False):\n\t\t\ty.append(album_id)\t\t\t\n\t\t\tdb(db.Album_by_tag.Tag == form2.vars.tag).update(albums = y)\n\n\t\tdb(db.Tags.id == form2.vars.id).delete()\t\t\n\t\n\trecord3 = db.Albums(request.args(0))\n\tform3 = SQLFORM(db.Albums,record3)\t\n\t\n\tif form3.accepts(request,session):\n\t\tdb(db.Albums.id == album_id).update(permission = form3.vars.per)\n\telif form3.errors:\n\t\tresponse.flash = "INVALID SELECTION"\t\n\t\t\n\n\treturn dict(form3 = form3, form = form,form2 = form2,images = images,album_name = album_name,name  = name,owner = owner,session_id = session_id, album_id = album_id)\n\ndef test():\n\treturn locals()\n\n"""This will display the clicked image and the comments on that image"""\ndef display_image():\n\targs = request.args\n\tsession_id = request.args[0]\n\tr = check(session_id)\n\tif(r == 0):\n\t\tredirect(URL(\'not_logged_in\'))\n\tname = get_name(session_id)\n\tresponse.flash = "Welcome "+ name\n\n\talbum = request.args[1]\n\timage = request.args[2]\n\towner = request.args[3]\n\talbum_id = request.args[4]\n\n\talbum_name = album\n\n\trow = db(db.Image.image == image).select()[0]\n\towner = row.owner\n\timage_id1 = row.id\n\t\n\tnew = db(db.Albums.id == album_id).select()[0]\n\tpics = new.images\n\t\n\ti = 0\n\tprev_id = image_id1\n\tnext_id = image_id1\n\n\tfor i in range(0,len(pics)):\n\t\tif image_id1 == pics[i]:\n\t\t\tif i > 0:\n\t\t\t\tprev_id = pics[i-1]\n\t\t\telse:\n\t\t\t\tprev_id = pics[i]\n\t\t\n\t\t\tif i < len(pics)-1:\t\t\t\n\t\t\t\tnext_id = pics[i+1]\n\t\t\telse:\n\t\t\t\tnext_id = pics[i]\n\t\t\tbreak\n\n\tp = db(db.Image.id == prev_id).select()\n\tfor j in p:\n\t\tprevimage = j.image \n\n\tn = db(db.Image.id == next_id).select()\n\tfor j in n:\n\t\tnextimage = j.image \n\t\n\trecord = db.register(request.args(0))\n\tform = SQLFORM(db.Comments,record)\n\n\t\n\tform.custom.widget.comment[\'_id\'] = "feedback"\n\tform.custom.widget.comment[\'_placeholder\'] = "Comment here ..."\n\tform.custom.widget.comment[\'_type\'] = "textarea"\n\t\n\tform.custom.submit[\'_id\'] = "postcomment"\n\tform.custom.submit[\'_value\'] = "Post Comment"\t\n\n\tif form.accepts(request,session):\n\t\tdb(db.Comments.id == form.vars.id).update(commentator = name)\n\t\tdb(db.Comments.id == form.vars.id).update(image_id = image_id1)\n\t\tdb(db.Comments.id == form.vars.id).update(created_on = request.now)\n\t\t#if(owner!=name):\n\t\t#\tdb(db.Comments.id == form.vars.id).update(comment_status = 0)\n\t\t#\tarr = db(db.register.Email == owner).select()[0].requests\n\t\t#\tdb(db.register.Email == owner).update(requests = arr + [form.vars.id])\n\t\t#else:\n\t\tdb(db.Comments.id == form.vars.id).update(comment_status = 1)\n\trows = db(db.Comments.image_id == image_id1).select()\n\tcommentator = []\n\tcomment = []\n\tfundates = []\n\t\n\timport datetime\n\tfrom gluon.tools import prettydate\t\n\n\tfor i in rows:\n\t\tif(int(i.comment_status) == 1):\n\t\t\tcommentator.append(i.commentator)\n\t\t\tcomment.append(i.comment)\n\t\t\td = (i.created_on)\n\t\t\tpretty_d = prettydate(d,T)\n\t\t\tfundates.append(pretty_d)\t\n\t\t\t\n\tperson_name_first = []\n\tperson_name_last = []\n\n\tfor i in range(0,len(commentator)):\n\t\tperson = db(db.register.Email == commentator[i]).select()[0].First_Name\n\t\tperson_2 = db(db.register.Email == commentator[i]).select()[0].Last_Name\n\t\tperson_name_first.append(person)\n\t\tperson_name_last.append(person_2)\n\n\treturn dict( previmage = previmage, nextimage = nextimage, fundates = fundates,image = image,owner = owner, album_id = album_id, album_name = album_name, form = form,commentator = commentator,comment = comment,session_id = session_id, person_name_first = person_name_first, person_name_last = person_name_last)\n\n\n"""This will display all the albums whose permission  has been set to public"""\ndef public_albums():\n\trows = db((db.Albums.album_name!=None) & (db.Albums.permission == \'PUBLIC\')).select()\n\targs = request.args\n\tsession_id = request.args[0]\n\tr = check(session_id)\n\tif(r == 0):\n\t\tredirect(URL(\'not_logged_in\'))\n\tname = get_name(session_id)\n\talbum_name = []\n\towners = []\n\timages = []\n\tids = []\n\tfor i in rows:\n\t\talbum_name.append(i.album_name)\n\t\timages.append(i.default1)\n\t\towners.append(i.owner)\t\n\t\tids.append(i.id)\t\n\treturn dict(albums = album_name,owners = owners, images = images,name = name,ids = ids,session_id = session_id)\n\ndef tagged_albums():\n\targs = request.args\n\tsession_id = args[0]\n\ttag = args[1]\n\t\n\tr = check(session_id)\n\tif(r == 0):\n\t\tredirect(URL(\'not_logged_in\'))\n\tname = get_name(session_id)\n\t\n\tl = [\'Nature\',\'Travel\',\'Entertainment\',\'Work\',\'Others\']\n\ttag_name = l[int(tag)]\t\n\t\n\talbums = []\n\towners = []\n\timages = []\n\tids = []\n\talbum_ids = []\n\n\tab = db(db.Album_by_tag.Tag == l[int(tag)]).select()\n\t\n\tfor i in ab:\n\t\tfor j in i.albums:\t\t\n\t\t\talbum_ids.append(j)\n\n\tfor i in album_ids:\n\t\trows = db((db.Albums.id == i) & (db.Albums.permission == \'PUBLIC\')).select() \n\t\tfor j in rows:\n\t\t\talbums.append(j.album_name)\n\t\t\timages.append(j.default1)\n\t\t\towners.append(j.owner)\n\t\t\tids.append(j.id)\n\n\treturn locals()\n\t\ndef download():\n        return response.download(request, db)\n\t\ndef get_name(session_id):\n\treturn db(db.login.session_id == session_id).select()[0].Email\n\n"""This function checks if the given session is valid or not"""\ndef check(session_id):\n\tx = db(db.login.session_id == session_id).select()\n\tif(len(x) == 0):\n\t\treturn 0\n\telse :\n\t\treturn x[0].session_status\n\t\t\ndef not_logged_in():\n\tresponse.flash = "Sorry You Are Not Logged In"\n\treturn dict()\n\ndef logout():\n\tsession_id = request.args[0]\n\tx = db(db.login.session_id == session_id).select()\n\tif(len(x) == 0):\n\t\tredirect(URL(\'not_logged_in\'))\n\telse:\n\t\tdb(db.login.session_id == session_id).update(session_status = 0)\n\t\tredirect(URL(\'default\',\'login\'))\n\treturn dict()\n\n"""This function will show all the requests for comments"""\ndef requests():\n\tsession_id = request.args[0]\n\tname = get_name(session_id)\n\trequests = db(db.register.Email == name).select()[0].requests\n\tresponse.flash = requests\n\tcomments = []\n\tcommentators = []\n\tids = []\n\tfor i in requests:\n\t\tx = db(db.Comments.id == i).select()[0]\n\t\tcomments.append(x.comment)\n\t\tcommentators.append(x.commentator)\n\t\tids.append(i)\n\treturn dict(session_id = session_id,comments = comments,commentators = commentators,ids = ids)\n\ndef validate_comment():\n\tsession_id = request.args[0]\n\tcomment_id = request.args[1]\n\tdb(db.Comments.id == int(comment_id)).update(comment_status = 1)\n\tx = db(db.Comments.id == comment_id).select()[0]\n\timage_id = x.image_id\n\towner = db(db.Image.id == image_id).select()[0].owner\n\ty = db(db.register.Email == owner).select()[0].requests\n\ty = y.remove(int(comment_id))\n\tdb(db.register.Email == owner).update(requests = y)\n\tredirect(URL(\'requests/\' + session_id) )\n\treturn dict()\n\nresponse._vars=response._caller(display_album)\n'
p7
sS'snapshot'
p8
(dp9
S'exception'
p10
(dp11
S'__hash__'
p12
S"<method-wrapper '__hash__' of exceptions.UnboundLocalError object>"
p13
sS'__setattr__'
p14
S"<method-wrapper '__setattr__' of exceptions.UnboundLocalError object>"
p15
sS'__reduce_ex__'
p16
S'<built-in method __reduce_ex__ of exceptions.UnboundLocalError object>'
p17
sS'__getslice__'
p18
S"<method-wrapper '__getslice__' of exceptions.UnboundLocalError object>"
p19
sS'__getitem__'
p20
S"<method-wrapper '__getitem__' of exceptions.UnboundLocalError object>"
p21
sS'__setstate__'
p22
S'<built-in method __setstate__ of exceptions.UnboundLocalError object>'
p23
sS'__reduce__'
p24
S'<built-in method __reduce__ of exceptions.UnboundLocalError object>'
p25
sS'__str__'
p26
S"<method-wrapper '__str__' of exceptions.UnboundLocalError object>"
p27
sS'__format__'
p28
S'<built-in method __format__ of exceptions.UnboundLocalError object>'
p29
sS'__getattribute__'
p30
S"<method-wrapper '__getattribute__' of exceptions.UnboundLocalError object>"
p31
sS'__class__'
p32
S"<type 'exceptions.UnboundLocalError'>"
p33
sS'__unicode__'
p34
S'<built-in method __unicode__ of exceptions.UnboundLocalError object>'
p35
sS'__delattr__'
p36
S"<method-wrapper '__delattr__' of exceptions.UnboundLocalError object>"
p37
sS'__subclasshook__'
p38
S'<built-in method __subclasshook__ of type object>'
p39
sS'__repr__'
p40
S"<method-wrapper '__repr__' of exceptions.UnboundLocalError object>"
p41
sS'args'
p42
S'("local variable \'y\' referenced before assignment",)'
p43
sS'__dict__'
p44
S'{}'
p45
sS'__sizeof__'
p46
S'<built-in method __sizeof__ of exceptions.UnboundLocalError object>'
p47
sS'__doc__'
p48
S"'Local name referenced but not bound to a value.'"
p49
sS'__init__'
p50
S"<method-wrapper '__init__' of exceptions.UnboundLocalError object>"
p51
sS'__new__'
p52
S'<built-in method __new__ of type object>'
p53
ssS'evalue'
p54
S"local variable 'y' referenced before assignment"
p55
sS'request'
p56
cgluon.html
XML_unpickle
p57
(S'sC^\x00\x00<div><table><tr><td style="font-weight:bold;vertical-align:top;">ajax</td><td style="vertical-align:top;">:</td><td><div>False</div></td></tr><tr><td style="font-weight:bold;vertical-align:top;">application</td><td style="vertical-align:top;">:</td><td><div>IMAGE_JOURNAL</div></td></tr><tr><td style="font-weight:bold;vertical-align:top;">args</td><td style="vertical-align:top;">:</td><td><div><table><tr><td><div>6333233</div></td></tr><tr><td><div>fairy_tale</div></td></tr><tr><td><div>vtg</div></td></tr><tr><td><div>91</div></td></tr></table></div></td></tr><tr><td style="font-weight:bold;vertical-align:top;">cid</td><td style="vertical-align:top;">:</td><td><div>None</div></td></tr><tr><td style="font-weight:bold;vertical-align:top;">client</td><td style="vertical-align:top;">:</td><td><div>127.0.0.1</div></td></tr><tr><td style="font-weight:bold;vertical-align:top;">controller</td><td style="vertical-align:top;">:</td><td><div>default</div></td></tr><tr><td style="font-weight:bold;vertical-align:top;">cookies</td><td style="vertical-align:top;">:</td><td><div><table><tr><td style="font-weight:bold;vertical-align:top;">session_id_admin</td><td style="vertical-align:top;">:</td><td><div>127.0.0.1-5d185072-a53c-47f0-8acb-8034f88bd69d<table><tr><td style="font-weight:bold;vertical-align:top;">comment</td><td style="vertical-align:top;">:</td><td><div></div></td></tr><tr><td style="font-weight:bold;vertical-align:top;">domain</td><td style="vertical-align:top;">:</td><td><div></div></td></tr><tr><td style="font-weight:bold;vertical-align:top;">expires</td><td style="vertical-align:top;">:</td><td><div></div></td></tr><tr><td style="font-weight:bold;vertical-align:top;">httponly</td><td style="vertical-align:top;">:</td><td><div></div></td></tr><tr><td style="font-weight:bold;vertical-align:top;">max-age</td><td style="vertical-align:top;">:</td><td><div></div></td></tr><tr><td style="font-weight:bold;vertical-align:top;">path</td><td style="vertical-align:top;">:</td><td><div></div></td></tr><tr><td style="font-weight:bold;vertical-align:top;">secure</td><td style="vertical-align:top;">:</td><td><div></div></td></tr><tr><td style="font-weight:bold;vertical-align:top;">version</td><td style="vertical-align:top;">:</td><td><div></div></td></tr></table></div></td></tr><tr><td style="font-weight:bold;vertical-align:top;">session_id_image_journal</td><td style="vertical-align:top;">:</td><td><div>127.0.0.1-8dabb70a-d6c2-4ab4-a3f1-4e0825b5bcb5<table><tr><td style="font-weight:bold;vertical-align:top;">comment</td><td style="vertical-align:top;">:</td><td><div></div></td></tr><tr><td style="font-weight:bold;vertical-align:top;">domain</td><td style="vertical-align:top;">:</td><td><div></div></td></tr><tr><td style="font-weight:bold;vertical-align:top;">expires</td><td style="vertical-align:top;">:</td><td><div></div></td></tr><tr><td style="font-weight:bold;vertical-align:top;">httponly</td><td style="vertical-align:top;">:</td><td><div></div></td></tr><tr><td style="font-weight:bold;vertical-align:top;">max-age</td><td style="vertical-align:top;">:</td><td><div></div></td></tr><tr><td style="font-weight:bold;vertical-align:top;">path</td><td style="vertical-align:top;">:</td><td><div></div></td></tr><tr><td style="font-weight:bold;vertical-align:top;">secure</td><td style="vertical-align:top;">:</td><td><div></div></td></tr><tr><td style="font-weight:bold;vertical-align:top;">version</td><td style="vertical-align:top;">:</td><td><div></div></td></tr></table></div></td></tr></table></div></td></tr><tr><td style="font-weight:bold;vertical-align:top;">env</td><td style="vertical-align:top;">:</td><td><div><table><tr><td style="font-weight:bold;vertical-align:top;">CONTENT_LENGTH</td><td style="vertical-align:top;">:</td><td><div>394</div></td></tr><tr><td style="font-weight:bold;vertical-align:top;">CONTENT_TYPE</td><td style="vertical-align:top;">:</td><td><div>multipart/form-data; boundary=---------------------------122972012324326</div></td></tr><tr><td style="font-weight:bold;vertical-align:top;">HTTP_ACCEPT</td><td style="vertical-align:top;">:</td><td><div>text/html,application/xhtml+xml,application/xml;q=0.9,*/*;q=0.8</div></td></tr><tr><td style="font-weight:bold;vertical-align:top;">HTTP_ACCEPT_ENCODING</td><td style="vertical-align:top;">:</td><td><div>gzip, deflate</div></td></tr><tr><td style="font-weight:bold;vertical-align:top;">HTTP_ACCEPT_LANGUAGE</td><td style="vertical-align:top;">:</td><td><div>en-US,en;q=0.5</div></td></tr><tr><td style="font-weight:bold;vertical-align:top;">HTTP_CONNECTION</td><td style="vertical-align:top;">:</td><td><div>keep-alive</div></td></tr><tr><td style="font-weight:bold;vertical-align:top;">HTTP_CONTENT_LENGTH</td><td style="vertical-align:top;">:</td><td><div>394</div></td></tr><tr><td style="font-weight:bold;vertical-align:top;">HTTP_CONTENT_TYPE</td><td style="vertical-align:top;">:</td><td><div>multipart/form-data; boundary=---------------------------122972012324326</div></td></tr><tr><td style="font-weight:bold;vertical-align:top;">HTTP_COOKIE</td><td style="vertical-align:top;">:</td><td><div>session_id_admin=127.0.0.1-5d185072-a53c-47f0-8acb-8034f88bd69d; session_id_image_journal=127.0.0.1-8dabb70a-d6c2-4ab4-a3f1-4e0825b5bcb5</div></td></tr><tr><td style="font-weight:bold;vertical-align:top;">HTTP_HOST</td><td style="vertical-align:top;">:</td><td><div>127.0.0.1:8000</div></td></tr><tr><td style="font-weight:bold;vertical-align:top;">HTTP_REFERER</td><td style="vertical-align:top;">:</td><td><div>http://127.0.0.1:8000/IMAGE_JOURNAL/default/display_album/6333233/fairy%20tale/vtg/91</div></td></tr><tr><td style="font-weight:bold;vertical-align:top;">HTTP_USER_AGENT</td><td style="vertical-align:top;">:</td><td><div>Mozilla/5.0 (Windows NT 6.1; WOW64; rv:28.0) Gecko/20100101 Firefox/28.0</div></td></tr><tr><td style="font-weight:bold;vertical-align:top;">PATH_INFO</td><td style="vertical-align:top;">:</td><td><div>/IMAGE_JOURNAL/default/display_album/6333233/fairy tale/vtg/91</div></td></tr><tr><td style="font-weight:bold;vertical-align:top;">QUERY_STRING</td><td style="vertical-align:top;">:</td><td><div></div></td></tr><tr><td style="font-weight:bold;vertical-align:top;">REMOTE_ADDR</td><td style="vertical-align:top;">:</td><td><div>127.0.0.1</div></td></tr><tr><td style="font-weight:bold;vertical-align:top;">REMOTE_PORT</td><td style="vertical-align:top;">:</td><td><div>51312</div></td></tr><tr><td style="font-weight:bold;vertical-align:top;">REQUEST_METHOD</td><td style="vertical-align:top;">:</td><td><div>POST</div></td></tr><tr><td style="font-weight:bold;vertical-align:top;">SCRIPT_NAME</td><td style="vertical-align:top;">:</td><td><div></div></td></tr><tr><td style="font-weight:bold;vertical-align:top;">SERVER_NAME</td><td style="vertical-align:top;">:</td><td><div>dell-01-PC</div></td></tr><tr><td style="font-weight:bold;vertical-align:top;">SERVER_PORT</td><td style="vertical-align:top;">:</td><td><div>8000</div></td></tr><tr><td style="font-weight:bold;vertical-align:top;">SERVER_PROTOCOL</td><td style="vertical-align:top;">:</td><td><div>HTTP/1.1</div></td></tr><tr><td style="font-weight:bold;vertical-align:top;">SERVER_SOFTWARE</td><td style="vertical-align:top;">:</td><td><div>Rocket 1.2.6</div></td></tr><tr><td style="font-weight:bold;vertical-align:top;">app_folders</td><td style="vertical-align:top;">:</td><td><div>set([&#x27;C:\\\\Users\\\\dell-01\\\\Downloads\\\\web2py\\\\applications\\\\admin\\\\&#x27;, &#x27;C:\\\\Users\\\\dell-01\\\\Downloads\\\\web2py\\\\applications\\\\IMAGE_JOURNAL\\\\&#x27;, &#x27;C:\\\\Users\\\\dell-01\\\\Downloads\\\\web2py\\\\applications\\\\welcome\\\\&#x27;])</div></td></tr><tr><td style="font-weight:bold;vertical-align:top;">applications_parent</td><td style="vertical-align:top;">:</td><td><div>C:\\Users\\dell-01\\Downloads\\web2py</div></td></tr><tr><td style="font-weight:bold;vertical-align:top;">cmd_args</td><td style="vertical-align:top;">:</td><td><div><table></table></div></td></tr><tr><td style="font-weight:bold;vertical-align:top;">cmd_options</td><td style="vertical-align:top;">:</td><td><div>&lt;Values at 0x316cd28: {&#x27;verbose&#x27;: False, &#x27;ip&#x27;: &#x27;127.0.0.1&#x27;, &#x27;debuglevel&#x27;: 30, &#x27;with_scheduler&#x27;: False, &#x27;ips&#x27;: [&#x27;fe80::e473:71f7:bd5f:4ce4%23&#x27;, &#x27;fe80::6d85:4c23:1bd3:ebcc%14&#x27;, &#x27;192.168.1.244&#x27;, &#x27;192.168.56.1&#x27;], &#x27;shutdown_timeout&#x27;: 5, &#x27;taskbar&#x27;: False, &#x27;with_coverage&#x27;: False, &#x27;port&#x27;: 8000, &#x27;maxthreads&#x27;: None, &#x27;softcron&#x27;: False, &#x27;server_name&#x27;: &#x27;dell-01-PC&#x27;, &#x27;bpython&#x27;: False, &#x27;nogui&#x27;: False, &#x27;pid_filename&#x27;: &#x27;httpserver.pid&#x27;, &#x27;extcron&#x27;: False, &#x27;runcron&#x27;: False, &#x27;run_system_tests&#x27;: False, &#x27;test&#x27;: None, &#x27;folder&#x27;: &#x27;C:\\\\Users\\\\dell-01\\\\Downloads\\\\web2py&#x27;, &#x27;config&#x27;: &#x27;&#x27;, &#x27;minthreads&#x27;: None, &#x27;shell&#x27;: None, &#x27;run&#x27;: &#x27;&#x27;, &#x27;log_filename&#x27;: &#x27;httpserver.log&#x27;, &#x27;profiler_dir&#x27;: None, &#x27;args&#x27;: [&#x27;&#x27;], &#x27;socket_timeout&#x27;: 5, &#x27;ssl_ca_certificate&#x27;: None, &#x27;scheduler&#x27;: None, &#x27;interfaces&#x27;: None, &#x27;ssl_private_key&#x27;: &#x27;&#x27;, &#x27;scheduler_groups&#x27;: None, &#x27;password&#x27;: &#x27;&lt;ask&gt;&#x27;, &#x27;request_queue_size&#x27;: 5, &#x27;ssl_certificate&#x27;: &#x27;&#x27;, &#x27;cronjob&#x27;: False, &#x27;numthreads&#x27;: None, &#x27;quiet&#x27;: False, &#x27;import_models&#x27;: False, &#x27;timeout&#x27;: 10, &#x27;plain&#x27;: False, &#x27;nobanner&#x27;: False}&gt;</div></td></tr><tr><td style="font-weight:bold;vertical-align:top;">content_length</td><td style="vertical-align:top;">:</td><td><div>394</div></td></tr><tr><td style="font-weight:bold;vertical-align:top;">content_type</td><td style="vertical-align:top;">:</td><td><div>multipart/form-data; boundary=---------------------------122972012324326</div></td></tr><tr><td style="font-weight:bold;vertical-align:top;">db_sessions</td><td style="vertical-align:top;">:</td><td><div>set([])</div></td></tr><tr><td style="font-weight:bold;vertical-align:top;">debugging</td><td style="vertical-align:top;">:</td><td><div>False</div></td></tr><tr><td style="font-weight:bold;vertical-align:top;">gluon_parent</td><td style="vertical-align:top;">:</td><td><div>C:\\Users\\dell-01\\Downloads\\web2py</div></td></tr><tr><td style="font-weight:bold;vertical-align:top;">http_accept</td><td style="vertical-align:top;">:</td><td><div>text/html,application/xhtml+xml,application/xml;q=0.9,*/*;q=0.8</div></td></tr><tr><td style="font-weight:bold;vertical-align:top;">http_accept_encoding</td><td style="vertical-align:top;">:</td><td><div>gzip, deflate</div></td></tr><tr><td style="font-weight:bold;vertical-align:top;">http_accept_language</td><td style="vertical-align:top;">:</td><td><div>en-US,en;q=0.5</div></td></tr><tr><td style="font-weight:bold;vertical-align:top;">http_connection</td><td style="vertical-align:top;">:</td><td><div>keep-alive</div></td></tr><tr><td style="font-weight:bold;vertical-align:top;">http_content_length</td><td style="vertical-align:top;">:</td><td><div>394</div></td></tr><tr><td style="font-weight:bold;vertical-align:top;">http_content_type</td><td style="vertical-align:top;">:</td><td><div>multipart/form-data; boundary=---------------------------122972012324326</div></td></tr><tr><td style="font-weight:bold;vertical-align:top;">http_cookie</td><td style="vertical-align:top;">:</td><td><div>session_id_admin=127.0.0.1-5d185072-a53c-47f0-8acb-8034f88bd69d; session_id_image_journal=127.0.0.1-8dabb70a-d6c2-4ab4-a3f1-4e0825b5bcb5</div></td></tr><tr><td style="font-weight:bold;vertical-align:top;">http_host</td><td style="vertical-align:top;">:</td><td><div>127.0.0.1:8000</div></td></tr><tr><td style="font-weight:bold;vertical-align:top;">http_referer</td><td style="vertical-align:top;">:</td><td><div>http://127.0.0.1:8000/IMAGE_JOURNAL/default/display_album/6333233/fairy%20tale/vtg/91</div></td></tr><tr><td style="font-weight:bold;vertical-align:top;">http_user_agent</td><td style="vertical-align:top;">:</td><td><div>Mozilla/5.0 (Windows NT 6.1; WOW64; rv:28.0) Gecko/20100101 Firefox/28.0</div></td></tr><tr><td style="font-weight:bold;vertical-align:top;">is_jython</td><td style="vertical-align:top;">:</td><td><div>False</div></td></tr><tr><td style="font-weight:bold;vertical-align:top;">is_pypy</td><td style="vertical-align:top;">:</td><td><div>False</div></td></tr><tr><td style="font-weight:bold;vertical-align:top;">is_source</td><td style="vertical-align:top;">:</td><td><div>False</div></td></tr><tr><td style="font-weight:bold;vertical-align:top;">local_hosts</td><td style="vertical-align:top;">:</td><td><div><table><tr><td><div>dell-01-PC</div></td></tr><tr><td><div>::ffff:127.0.0.1</div></td></tr><tr><td><div>::1</div></td></tr><tr><td><div>fe80::e473:71f7:bd5f:4ce4%23</div></td></tr><tr><td><div>192.168.1.244</div></td></tr><tr><td><div>fe80::6d85:4c23:1bd3:ebcc%14</div></td></tr><tr><td><div>127.0.0.1</div></td></tr><tr><td><div>192.168.56.1</div></td></tr></table></div></td></tr><tr><td style="font-weight:bold;vertical-align:top;">path_info</td><td style="vertical-align:top;">:</td><td><div>/IMAGE_JOURNAL/default/display_album/6333233/fairy tale/vtg/91</div></td></tr><tr><td style="font-weight:bold;vertical-align:top;">query_string</td><td style="vertical-align:top;">:</td><td><div></div></td></tr><tr><td style="font-weight:bold;vertical-align:top;">remote_addr</td><td style="vertical-align:top;">:</td><td><div>127.0.0.1</div></td></tr><tr><td style="font-weight:bold;vertical-align:top;">remote_port</td><td style="vertical-align:top;">:</td><td><div>51312</div></td></tr><tr><td style="font-weight:bold;vertical-align:top;">request_method</td><td style="vertical-align:top;">:</td><td><div>POST</div></td></tr><tr><td style="font-weight:bold;vertical-align:top;">request_uri</td><td style="vertical-align:top;">:</td><td><div>/IMAGE_JOURNAL/default/display_album/6333233/fairy tale/vtg/91</div></td></tr><tr><td style="font-weight:bold;vertical-align:top;">script_name</td><td style="vertical-align:top;">:</td><td><div></div></td></tr><tr><td style="font-weight:bold;vertical-align:top;">server_name</td><td style="vertical-align:top;">:</td><td><div>dell-01-PC</div></td></tr><tr><td style="font-weight:bold;vertical-align:top;">server_port</td><td style="vertical-align:top;">:</td><td><div>8000</div></td></tr><tr><td style="font-weight:bold;vertical-align:top;">server_protocol</td><td style="vertical-align:top;">:</td><td><div>HTTP/1.1</div></td></tr><tr><td style="font-weight:bold;vertical-align:top;">server_software</td><td style="vertical-align:top;">:</td><td><div>Rocket 1.2.6</div></td></tr><tr><td style="font-weight:bold;vertical-align:top;">web2py_path</td><td style="vertical-align:top;">:</td><td><div>C:\\Users\\dell-01\\Downloads\\web2py</div></td></tr><tr><td style="font-weight:bold;vertical-align:top;">web2py_version</td><td style="vertical-align:top;">:</td><td><div>2.9.5-stable+timestamp.2014.03.20.22.57.13</div></td></tr><tr><td style="font-weight:bold;vertical-align:top;">wsgi.errors</td><td style="vertical-align:top;">:</td><td><div>&lt;open file &#x27;&lt;stderr&gt;&#x27;, mode &#x27;w&#x27; at 0x01D760D0&gt;</div></td></tr><tr><td style="font-weight:bold;vertical-align:top;">wsgi.file_wrapper</td><td style="vertical-align:top;">:</td><td><div>&lt;class wsgiref.util.FileWrapper at 0x02463260&gt;</div></td></tr><tr><td style="font-weight:bold;vertical-align:top;">wsgi.input</td><td style="vertical-align:top;">:</td><td><div>&lt;socket._fileobject object at 0x06F9B1B0&gt;</div></td></tr><tr><td style="font-weight:bold;vertical-align:top;">wsgi.multiprocess</td><td style="vertical-align:top;">:</td><td><div>False</div></td></tr><tr><td style="font-weight:bold;vertical-align:top;">wsgi.multithread</td><td style="vertical-align:top;">:</td><td><div>True</div></td></tr><tr><td style="font-weight:bold;vertical-align:top;">wsgi.run_once</td><td style="vertical-align:top;">:</td><td><div>False</div></td></tr><tr><td style="font-weight:bold;vertical-align:top;">wsgi.url_scheme</td><td style="vertical-align:top;">:</td><td><div>http</div></td></tr><tr><td style="font-weight:bold;vertical-align:top;">wsgi.version</td><td style="vertical-align:top;">:</td><td><div><table><tr><td><div>1</div></td></tr><tr><td><div>0</div></td></tr></table></div></td></tr><tr><td style="font-weight:bold;vertical-align:top;">wsgi_errors</td><td style="vertical-align:top;">:</td><td><div>&lt;open file &#x27;&lt;stderr&gt;&#x27;, mode &#x27;w&#x27; at 0x01D760D0&gt;</div></td></tr><tr><td style="font-weight:bold;vertical-align:top;">wsgi_file_wrapper</td><td style="vertical-align:top;">:</td><td><div>&lt;class wsgiref.util.FileWrapper at 0x02463260&gt;</div></td></tr><tr><td style="font-weight:bold;vertical-align:top;">wsgi_input</td><td style="vertical-align:top;">:</td><td><div>&lt;socket._fileobject object at 0x06F9B1B0&gt;</div></td></tr><tr><td style="font-weight:bold;vertical-align:top;">wsgi_multiprocess</td><td style="vertical-align:top;">:</td><td><div>False</div></td></tr><tr><td style="font-weight:bold;vertical-align:top;">wsgi_multithread</td><td style="vertical-align:top;">:</td><td><div>True</div></td></tr><tr><td style="font-weight:bold;vertical-align:top;">wsgi_run_once</td><td style="vertical-align:top;">:</td><td><div>False</div></td></tr><tr><td style="font-weight:bold;vertical-align:top;">wsgi_url_scheme</td><td style="vertical-align:top;">:</td><td><div>http</div></td></tr><tr><td style="font-weight:bold;vertical-align:top;">wsgi_version</td><td style="vertical-align:top;">:</td><td><div><table><tr><td><div>1</div></td></tr><tr><td><div>0</div></td></tr></table></div></td></tr></table></div></td></tr><tr><td style="font-weight:bold;vertical-align:top;">extension</td><td style="vertical-align:top;">:</td><td><div>html</div></td></tr><tr><td style="font-weight:bold;vertical-align:top;">folder</td><td style="vertical-align:top;">:</td><td><div>C:\\Users\\dell-01\\Downloads\\web2py\\applications\\IMAGE_JOURNAL\\</div></td></tr><tr><td style="font-weight:bold;vertical-align:top;">function</td><td style="vertical-align:top;">:</td><td><div>display_album</div></td></tr><tr><td style="font-weight:bold;vertical-align:top;">global_settings</td><td style="vertical-align:top;">:</td><td><div><table><tr><td style="font-weight:bold;vertical-align:top;">app_folders</td><td style="vertical-align:top;">:</td><td><div>set([&#x27;C:\\\\Users\\\\dell-01\\\\Downloads\\\\web2py\\\\applications\\\\admin\\\\&#x27;, &#x27;C:\\\\Users\\\\dell-01\\\\Downloads\\\\web2py\\\\applications\\\\IMAGE_JOURNAL\\\\&#x27;, &#x27;C:\\\\Users\\\\dell-01\\\\Downloads\\\\web2py\\\\applications\\\\welcome\\\\&#x27;])</div></td></tr><tr><td style="font-weight:bold;vertical-align:top;">applications_parent</td><td style="vertical-align:top;">:</td><td><div>C:\\Users\\dell-01\\Downloads\\web2py</div></td></tr><tr><td style="font-weight:bold;vertical-align:top;">cmd_args</td><td style="vertical-align:top;">:</td><td><div><table></table></div></td></tr><tr><td style="font-weight:bold;vertical-align:top;">cmd_options</td><td style="vertical-align:top;">:</td><td><div>&lt;Values at 0x316cd28: {&#x27;verbose&#x27;: False, &#x27;ip&#x27;: &#x27;127.0.0.1&#x27;, &#x27;debuglevel&#x27;: 30, &#x27;with_scheduler&#x27;: False, &#x27;ips&#x27;: [&#x27;fe80::e473:71f7:bd5f:4ce4%23&#x27;, &#x27;fe80::6d85:4c23:1bd3:ebcc%14&#x27;, &#x27;192.168.1.244&#x27;, &#x27;192.168.56.1&#x27;], &#x27;shutdown_timeout&#x27;: 5, &#x27;taskbar&#x27;: False, &#x27;with_coverage&#x27;: False, &#x27;port&#x27;: 8000, &#x27;maxthreads&#x27;: None, &#x27;softcron&#x27;: False, &#x27;server_name&#x27;: &#x27;dell-01-PC&#x27;, &#x27;bpython&#x27;: False, &#x27;nogui&#x27;: False, &#x27;pid_filename&#x27;: &#x27;httpserver.pid&#x27;, &#x27;extcron&#x27;: False, &#x27;runcron&#x27;: False, &#x27;run_system_tests&#x27;: False, &#x27;test&#x27;: None, &#x27;folder&#x27;: &#x27;C:\\\\Users\\\\dell-01\\\\Downloads\\\\web2py&#x27;, &#x27;config&#x27;: &#x27;&#x27;, &#x27;minthreads&#x27;: None, &#x27;shell&#x27;: None, &#x27;run&#x27;: &#x27;&#x27;, &#x27;log_filename&#x27;: &#x27;httpserver.log&#x27;, &#x27;profiler_dir&#x27;: None, &#x27;args&#x27;: [&#x27;&#x27;], &#x27;socket_timeout&#x27;: 5, &#x27;ssl_ca_certificate&#x27;: None, &#x27;scheduler&#x27;: None, &#x27;interfaces&#x27;: None, &#x27;ssl_private_key&#x27;: &#x27;&#x27;, &#x27;scheduler_groups&#x27;: None, &#x27;password&#x27;: &#x27;&lt;ask&gt;&#x27;, &#x27;request_queue_size&#x27;: 5, &#x27;ssl_certificate&#x27;: &#x27;&#x27;, &#x27;cronjob&#x27;: False, &#x27;numthreads&#x27;: None, &#x27;quiet&#x27;: False, &#x27;import_models&#x27;: False, &#x27;timeout&#x27;: 10, &#x27;plain&#x27;: False, &#x27;nobanner&#x27;: False}&gt;</div></td></tr><tr><td style="font-weight:bold;vertical-align:top;">db_sessions</td><td style="vertical-align:top;">:</td><td><div>set([])</div></td></tr><tr><td style="font-weight:bold;vertical-align:top;">debugging</td><td style="vertical-align:top;">:</td><td><div>False</div></td></tr><tr><td style="font-weight:bold;vertical-align:top;">gluon_parent</td><td style="vertical-align:top;">:</td><td><div>C:\\Users\\dell-01\\Downloads\\web2py</div></td></tr><tr><td style="font-weight:bold;vertical-align:top;">is_jython</td><td style="vertical-align:top;">:</td><td><div>False</div></td></tr><tr><td style="font-weight:bold;vertical-align:top;">is_pypy</td><td style="vertical-align:top;">:</td><td><div>False</div></td></tr><tr><td style="font-weight:bold;vertical-align:top;">is_source</td><td style="vertical-align:top;">:</td><td><div>False</div></td></tr><tr><td style="font-weight:bold;vertical-align:top;">local_hosts</td><td style="vertical-align:top;">:</td><td><div><table><tr><td><div>dell-01-PC</div></td></tr><tr><td><div>::ffff:127.0.0.1</div></td></tr><tr><td><div>::1</div></td></tr><tr><td><div>fe80::e473:71f7:bd5f:4ce4%23</div></td></tr><tr><td><div>192.168.1.244</div></td></tr><tr><td><div>fe80::6d85:4c23:1bd3:ebcc%14</div></td></tr><tr><td><div>127.0.0.1</div></td></tr><tr><td><div>192.168.56.1</div></td></tr></table></div></td></tr><tr><td style="font-weight:bold;vertical-align:top;">web2py_version</td><td style="vertical-align:top;">:</td><td><div>2.9.5-stable+timestamp.2014.03.20.22.57.13</div></td></tr></table></div></td></tr><tr><td style="font-weight:bold;vertical-align:top;">is_https</td><td style="vertical-align:top;">:</td><td><div>False</div></td></tr><tr><td style="font-weight:bold;vertical-align:top;">is_local</td><td style="vertical-align:top;">:</td><td><div>True</div></td></tr><tr><td style="font-weight:bold;vertical-align:top;">is_restful</td><td style="vertical-align:top;">:</td><td><div>False</div></td></tr><tr><td style="font-weight:bold;vertical-align:top;">now</td><td style="vertical-align:top;">:</td><td><div>datetime.datetime(2014, 4, 17, 4, 5, 59, 240000)</div></td></tr><tr><td style="font-weight:bold;vertical-align:top;">raw_args</td><td style="vertical-align:top;">:</td><td><div>6333233/fairy tale/vtg/91</div></td></tr><tr><td style="font-weight:bold;vertical-align:top;">raw_extension</td><td style="vertical-align:top;">:</td><td><div>None</div></td></tr><tr><td style="font-weight:bold;vertical-align:top;">url</td><td style="vertical-align:top;">:</td><td><div>/IMAGE_JOURNAL/default/display_album/6333233/fairy tale/vtg/91</div></td></tr><tr><td style="font-weight:bold;vertical-align:top;">utcnow</td><td style="vertical-align:top;">:</td><td><div>datetime.datetime(2014, 4, 16, 22, 35, 59, 240000)</div></td></tr><tr><td style="font-weight:bold;vertical-align:top;">uuid</td><td style="vertical-align:top;">:</td><td><div>IMAGE_JOURNAL/127.0.0.1.2014-04-17.04-05-59.3a0c18f7-060e-4e29-9811-14df6f63b5ae</div></td></tr><tr><td style="font-weight:bold;vertical-align:top;">wsgi</td><td style="vertical-align:top;">:</td><td><div>&lt;gluon.main.LazyWSGI object at 0x0740C0F0&gt;</div></td></tr></table></div>'
tRp58
sS'frames'
p59
(lp60
(dp61
S'file'
p62
S'C:\\home\\mdipierro\\make_web2py\\web2py\\gluon\\restricted.py'
p63
sS'dump'
p64
(dp65
sS'lnum'
p66
I220
sS'lines'
p67
(dp68
sS'call'
p69
S'(code=\'"""This is the registration controller"""\\ndef re...\\n\\nresponse._vars=response._caller(display_album)\\n\', environment={\'A\': <class \'gluon.html.A\'>, \'ANY_OF\': <class \'gluon.validators.ANY_OF\'>, \'B\': <class \'gluon.html.B\'>, \'BEAUTIFY\': <class \'gluon.html.BEAUTIFY\'>, \'BODY\': <class \'gluon.html.BODY\'>, \'BR\': <class \'gluon.html.BR\'>, \'BUTTON\': <class \'gluon.html.BUTTON\'>, \'CAT\': <class \'gluon.html.CAT\'>, \'CENTER\': <class \'gluon.html.CENTER\'>, \'CLEANUP\': <class \'gluon.validators.CLEANUP\'>, ...}, layer=r\'C:\\Users\\dell-01\\Downloads\\web2py\\applications\\IMAGE_JOURNAL\\controllers/default.py\')'
p70
sS'func'
p71
S'restricted'
p72
sa(dp73
g62
S'C:\\Users\\dell-01\\Downloads\\web2py\\applications\\IMAGE_JOURNAL\\controllers\\default.py'
p74
sg64
(dp75
sg66
I434
sg67
(dp76
I423
S'\tcomment_id = request.args[1]'
p77
sI424
S'\tdb(db.Comments.id == int(comment_id)).update(comment_status = 1)'
p78
sI425
S'\tx = db(db.Comments.id == comment_id).select()[0]'
p79
sI426
S'\timage_id = x.image_id'
p80
sI427
S'\towner = db(db.Image.id == image_id).select()[0].owner'
p81
sI428
S'\ty = db(db.register.Email == owner).select()[0].requests'
p82
sI429
S'\ty = y.remove(int(comment_id))'
p83
sI430
S'\tdb(db.register.Email == owner).update(requests = y)'
p84
sI431
S"\tredirect(URL('requests/' + session_id) )"
p85
sI432
S'\treturn dict()'
p86
ssg69
S'()'
p87
sg71
S'<module>'
p88
sa(dp89
g62
S'C:\\home\\mdipierro\\make_web2py\\web2py\\gluon\\globals.py'
p90
sg64
(dp91
sg66
I385
sg67
(dp92
sg69
S'(f=<function display_album>)'
p93
sg71
S'<lambda>'
p94
sa(dp95
g62
S'C:\\Users\\dell-01\\Downloads\\web2py\\applications\\IMAGE_JOURNAL\\controllers\\default.py'
p96
sg64
(dp97
S'y'
S'undefined'
p98
sS'builtinint'
p99
S"<type 'int'>"
p100
sS'builtinFalse'
p101
S'False'
p102
sS'album_id'
p103
S"'91'"
p104
ssg66
I204
sg67
(dp105
I199
S'\t\t\tc = db(db.Album_by_tag.Tag == form2.vars.tag).count()'
p106
sI200
S'\t\t\tif c == 0:'
p107
sI201
S'\t\t\t\tdb.Album_by_tag.insert(Tag = form2.vars.tag,albums = [])'
p108
sI202
S'\t\t\ty = db(db.Album_by_tag.Tag == form2.vars.tag).select()[0].albums'
p109
sI203
S''
sI204
S'\t\tif((int(album_id) in y) == False):'
p110
sI205
S'\t\t\ty.append(album_id)'
p111
sI206
S'\t\t\tdb(db.Album_by_tag.Tag == form2.vars.tag).update(albums = y)'
p112
sI207
S''
sI208
S'\t\tdb(db.Tags.id == form2.vars.id).delete()'
p113
ssg69
S'()'
p114
sg71
S'display_album'
p115
sasS'pyver'
p116
S'Python 2.7.6: C:\\Users\\dell-01\\Downloads\\web2py\\web2py.exe (prefix: )'
p117
sS'session'
p118
g57
(S's\x1a\x00\x00\x00<div><table></table></div>'
tRp119
sS'etype'
p120
S"<type 'exceptions.UnboundLocalError'>"
p121
sS'date'
p122
S'Thu Apr 17 04:05:59 2014'
p123
sS'response'
p124
g57
(S's\x08\x17\x00\x00<div><table><tr><td style="font-weight:bold;vertical-align:top;">body</td><td style="vertical-align:top;">:</td><td><div>&lt;cStringIO.StringO object at 0x076888A0&gt;</div></td></tr><tr><td style="font-weight:bold;vertical-align:top;">cookies</td><td style="vertical-align:top;">:</td><td><div><table><tr><td style="font-weight:bold;vertical-align:top;">session_id_image_journal</td><td style="vertical-align:top;">:</td><td><div>127.0.0.1-8dabb70a-d6c2-4ab4-a3f1-4e0825b5bcb5<table><tr><td style="font-weight:bold;vertical-align:top;">comment</td><td style="vertical-align:top;">:</td><td><div></div></td></tr><tr><td style="font-weight:bold;vertical-align:top;">domain</td><td style="vertical-align:top;">:</td><td><div></div></td></tr><tr><td style="font-weight:bold;vertical-align:top;">expires</td><td style="vertical-align:top;">:</td><td><div></div></td></tr><tr><td style="font-weight:bold;vertical-align:top;">httponly</td><td style="vertical-align:top;">:</td><td><div></div></td></tr><tr><td style="font-weight:bold;vertical-align:top;">max-age</td><td style="vertical-align:top;">:</td><td><div></div></td></tr><tr><td style="font-weight:bold;vertical-align:top;">path</td><td style="vertical-align:top;">:</td><td><div>/</div></td></tr><tr><td style="font-weight:bold;vertical-align:top;">secure</td><td style="vertical-align:top;">:</td><td><div></div></td></tr><tr><td style="font-weight:bold;vertical-align:top;">version</td><td style="vertical-align:top;">:</td><td><div></div></td></tr></table></div></td></tr></table></div></td></tr><tr><td style="font-weight:bold;vertical-align:top;">delimiters</td><td style="vertical-align:top;">:</td><td><div><table><tr><td><div>{{</div></td></tr><tr><td><div>}}</div></td></tr></table></div></td></tr><tr><td style="font-weight:bold;vertical-align:top;">files</td><td style="vertical-align:top;">:</td><td><div><table></table></div></td></tr><tr><td style="font-weight:bold;vertical-align:top;">flash</td><td style="vertical-align:top;">:</td><td><div>Welcome vtg</div></td></tr><tr><td style="font-weight:bold;vertical-align:top;">generic_patterns</td><td style="vertical-align:top;">:</td><td><div><table></table></div></td></tr><tr><td style="font-weight:bold;vertical-align:top;">headers</td><td style="vertical-align:top;">:</td><td><div><table><tr><td style="font-weight:bold;vertical-align:top;">X-Powered-By</td><td style="vertical-align:top;">:</td><td><div>web2py</div></td></tr></table></div></td></tr><tr><td style="font-weight:bold;vertical-align:top;">menu</td><td style="vertical-align:top;">:</td><td><div><table></table></div></td></tr><tr><td style="font-weight:bold;vertical-align:top;">meta</td><td style="vertical-align:top;">:</td><td><div><table></table></div></td></tr><tr><td style="font-weight:bold;vertical-align:top;">models_to_run</td><td style="vertical-align:top;">:</td><td><div><table><tr><td><div>^\\w+\\.py$</div></td></tr><tr><td><div>^default/\\w+\\.py$</div></td></tr><tr><td><div>^default/display_album/\\w+\\.py$</div></td></tr></table></div></td></tr><tr><td style="font-weight:bold;vertical-align:top;">postprocessing</td><td style="vertical-align:top;">:</td><td><div><table></table></div></td></tr><tr><td style="font-weight:bold;vertical-align:top;">session_client</td><td style="vertical-align:top;">:</td><td><div>127.0.0.1</div></td></tr><tr><td style="font-weight:bold;vertical-align:top;">session_cookie_compression_level</td><td style="vertical-align:top;">:</td><td><div>None</div></td></tr><tr><td style="font-weight:bold;vertical-align:top;">session_cookie_expires</td><td style="vertical-align:top;">:</td><td><div>None</div></td></tr><tr><td style="font-weight:bold;vertical-align:top;">session_cookie_key</td><td style="vertical-align:top;">:</td><td><div>None</div></td></tr><tr><td style="font-weight:bold;vertical-align:top;">session_data_name</td><td style="vertical-align:top;">:</td><td><div>session_data_image_journal</div></td></tr><tr><td style="font-weight:bold;vertical-align:top;">session_file</td><td style="vertical-align:top;">:</td><td><div>&lt;open file &#x27;C:\\\\Users\\\\dell-01\\\\Downloads\\\\web2py\\\\applications\\\\IMAGE_JOURNAL\\\\sessions\\\\127.0.0.1-8dabb70a-d6c2-4ab4-a3f1-4e0825b5bcb5&#x27;, mode &#x27;rb+&#x27; at 0x0768DA70&gt;</div></td></tr><tr><td style="font-weight:bold;vertical-align:top;">session_filename</td><td style="vertical-align:top;">:</td><td><div>C:\\Users\\dell-01\\Downloads\\web2py\\applications\\IMAGE_JOURNAL\\sessions\\127.0.0.1-8dabb70a-d6c2-4ab4-a3f1-4e0825b5bcb5</div></td></tr><tr><td style="font-weight:bold;vertical-align:top;">session_hash</td><td style="vertical-align:top;">:</td><td><div>55ee2223a8bd1ac0c7e4e8c767e64946</div></td></tr><tr><td style="font-weight:bold;vertical-align:top;">session_id</td><td style="vertical-align:top;">:</td><td><div>127.0.0.1-8dabb70a-d6c2-4ab4-a3f1-4e0825b5bcb5</div></td></tr><tr><td style="font-weight:bold;vertical-align:top;">session_id_name</td><td style="vertical-align:top;">:</td><td><div>session_id_image_journal</div></td></tr><tr><td style="font-weight:bold;vertical-align:top;">session_locked</td><td style="vertical-align:top;">:</td><td><div>True</div></td></tr><tr><td style="font-weight:bold;vertical-align:top;">session_masterapp</td><td style="vertical-align:top;">:</td><td><div>IMAGE_JOURNAL</div></td></tr><tr><td style="font-weight:bold;vertical-align:top;">session_new</td><td style="vertical-align:top;">:</td><td><div>False</div></td></tr><tr><td style="font-weight:bold;vertical-align:top;">session_storage_type</td><td style="vertical-align:top;">:</td><td><div>file</div></td></tr><tr><td style="font-weight:bold;vertical-align:top;">status</td><td style="vertical-align:top;">:</td><td><div>200</div></td></tr><tr><td style="font-weight:bold;vertical-align:top;">view</td><td style="vertical-align:top;">:</td><td><div>default/display_album.html</div></td></tr></table></div>'
tRp125
sS'locals'
p126
(dp127
S'rows'
p128
S'[141L]'
p129
sS'name'
p130
S"'vtg'"
p131
sS'form'
p132
S'<gluon.sqlhtml.SQLFORM object>'
p133
sS'album_id'
p134
S"'91'"
p135
sS'images'
p136
S"['Albums.default1.a53d73b46694d4b7.75726c736466736466737364666673646673642e6a7067.jpg']"
p137
sg42
S"['6333233', 'fairy_tale', 'vtg', '91']"
p138
sS'session_id'
p139
S"'6333233'"
p140
sS'j'
S'141L'
p141
sS'record2'
p142
S'None'
p143
sS'record'
p144
S'None'
p145
sS'r'
S"'1'"
p146
sS'form2'
p147
S'<gluon.sqlhtml.SQLFORM object>'
p148
sS'owner'
p149
S"'vtg'"
p150
sS'x'
S"['Nature', 'Travel', 'Entertainment', 'Others']"
p151
sS'album_name'
p152
S"'fairy_tale'"
p153
sssS'traceback'
p154
S'Traceback (most recent call last):\n  File "/home/mdipierro/make_web2py/web2py/gluon/restricted.py", line 220, in restricted\n  File "C:\\Users\\dell-01\\Downloads\\web2py\\applications\\IMAGE_JOURNAL\\controllers/default.py", line 434, in <module>\n  File "/home/mdipierro/make_web2py/web2py/gluon/globals.py", line 385, in <lambda>\n  File "C:\\Users\\dell-01\\Downloads\\web2py\\applications\\IMAGE_JOURNAL\\controllers/default.py", line 204, in display_album\n    if((int(album_id) in y) == False):\nUnboundLocalError: local variable \'y\' referenced before assignment\n'
p155
s.