(dp1
S'output'
p2
S"<type 'exceptions.SyntaxError'> EOL while scanning string literal (login.html, line 8)"
p3
sS'layer'
p4
S'/home/user/Documents/web2py/applications/IMAGE_JOURNAL2/views/default/login.html'
p5
sS'code'
p6
S'response.write(\'<!DOCTYPE html>\\r\\n<html>\\r\\n<head>\\r\\n\\t<title>Log In</title>\\r\\n\\t<link href="\', escape=False)\nresponse.write(URL(\'static\', \'css/mainstyle.css\'))\nresponse.write(\'" rel="stylesheet" type="text/css" />\\r\\n\\t<link href="\', escape=False)\nresponse.write(URL(\'static\', \'css/main1style.css\'))\nresponse.write(\'" rel="stylesheet" type="text/css" />\\r\\n\\t<link rel="stylesheet" type="text/css" href="../static/css/mainstyle.css">\\r\\n\\t<link rel="stylesheet" type="text/css" href="../static/css/main1style.css">\\r\\n\\t<script src="http://ajax.googleapis.com/ajax/libs/jquery/1.5.2/jquery.min.js"></script>\\r\\n<title>\\r\\n</title>\\r\\n</head>\\r\\n\\r\\n<body>\\r\\n    <!--<h2>\', escape=False)\nresponse.write(response.title)\nresponse.write(\'</h2>-->\\r\\n\\r\\n\\t<div id="container">\\r\\n\\t\\t<div class="header">\\r\\n\\t\\t\\t<img src="\', escape=False)\nresponse.write(URL(\'static\',\'images/logomain.svg">\n</div>\n<div class="content">\n<div class="mosaic" align="left">\n<div id="slideshow">\n<div>\n<img src="../static/images/imgslide1.jpg">\n</div>\n<div>\n<img src="../static/images/img3slide1.jpg">\n</div>\n</div>\n<div id="slideshow1">\n<div>\n<img src="../static/images/img2slide1.jpg">\n</div>\n<div>\n<img src="../static/images/img10slide1.jpg">\n</div>\n</div>\n<div id="slideshow2">\n<div>\n<img src="../static/images/img1slide1.jpg">\n</div>\n<div>\n<img src="../static/images/img6slide1.jpg">\n</div>\n</div>\n<div id="slideshow3">\n<div>\n<img src="../static/images/img3slide1.jpg">\n</div>\n<div>\n<img src="../static/images/img7slide1.jpg">\n</div>\n</div>\n<div id="slideshow4">\n<div>\n<img src="../static/images/img7slide1.jpg">\n</div>\n<div>\n<img src="../static/images/img6slide1.jpg">\n</div>\n</div>\n<div id="slideshow5">\n<div>\n<img src="../static/images/img2slide1.jpg">\n</div>\n<div>\n<img src="../static/images/img1slide1.jpg">\n</div>\n</div>\n<div id="slideshow6">\n<div>\n<img src="../static/images/img3slide1.jpg">\n</div>\n<div>\n<img src="../static/images/imgslide1.jpg">\n</div>\n</div>\n<div id="slideshow7">\n<div>\n<img src="../static/images/imgslide1.jpg">\n</div>\n<div>\n<img src="../static/images/img5slide1.jpg">\n</div>\n</div>\n<div id="slideshow8">\n<div>\n<img src="../static/images/img7slide1.jpg">\n</div>\n<div>\n<img src="../static/images/imgslide1.jpg">\n</div>\n</div>\n<div id="slideshow9">\n<div>\n<img src="../static/images/img6slide1.jpg">\n</div>\n<div>\n<img src="../static/images/img3slide1.jpg">\n</div>\n</div>\n</div>\n<div id="formstyle">\n<div id="form">\n{{=form.custom.begin)\nresponse.write(\'\\t\\t\\t\\r\\n\\t\\t\\t\\t\\t<label>\\r\\n\\t\\t\\t\\t\\t<span class="fields">Email<font color=#FF0000></font></span>\', escape=False)\nresponse.write(form.custom.widget.Email.update(_placeholder="Email"))\nresponse.write(\'\\r\\n\\t\\t\\t\\t\\t</label>\\r\\n\\r\\n\\t\\t\\t\\t\\t<label>\\r\\n\\t\\t\\t\\t\\t<span class="fields">Password<font color=#FF0000></font></span>\', escape=False)\nresponse.write(form.custom.widget.Password.update(_placeholder="Password"))\nresponse.write(\'\\r\\n\\t\\t\\t\\t\\t</label>\\r\\n\\t\\t\\t\\t\\t\\t\\r\\n\\t\\t\\t\\t\\t<label id="buttonhover">\\r\\n\\t\\t\\t\\t\\t\', escape=False)\nresponse.write(form.custom.submit.update(_value="Log In"))\nresponse.write(\'\\r\\n\\t\\t\\t\\t\\t\', escape=False)\nresponse.write(form.custom.end)\nresponse.write(\'\\r\\n                    </label>\\t\\r\\n                    <label id="signhover"> \\r\\n\\t\\t\\t\\t\\t<input id="signstyle" type="button" value="Register" onclick =\\\'window.location="\', escape=False)\nresponse.write(URL(\'default\', \'register\',args=[]))\nresponse.write(\'"\\\'/>\\r\\n             \\r\\n\\t\\t\\t\\t\\t</label>\\r\\n\\t\\t\\t\\t</div>\\r\\n\\t\\t\\t</div>\\r\\n\\t\\r\\n\\t\\t</div>\\r\\n\\t</div>\\r\\n\\t<div class="foot">\\r\\n\\r\\n\\t\\t\\t<div class="footnav">\\r\\n\\t\\t\\t\\t<ul>\\r\\n\\t\\t\\t\\t\\t<li><a href="#">About</a></li>\\r\\n\\t\\t\\t\\t\\t<li><a href="#">Contact</a></li>\\r\\n\\t\\t\\t\\t\\t<li><a href="#">Credits</a></li>\\r\\n\\t\\t\\t\\t</ul>\\r\\n\\t\\t\\t</div>\\r\\n\\t\\r\\n\\t\\t\\t<div class="social clear">\\r\\n\\t\\t\\t\\t<div class="follow">\\r\\n\\t\\t\\t\\t<ul>\\r\\n\\t\\t\\t\\t\\t<li class="youtube"><a href="#" >Youtube</a></li>\\r\\n\\t\\t\\t\\t\\t<li class="facebook"><a href="#">Facebook</a></li>\\r\\n\\t\\t\\t\\t\\t<li class="twitter"><a href="#" >Twitter</a></li>\\r\\n\\t\\t\\t\\t\\t<li class="google"><a href="#">Google Plus</a></li>\\r\\n\\t\\t\\t\\t</ul>\\r\\n\\t\\t\\t\\t</div>\\r\\n\\t\\t\\t</div>\\t\\r\\n\\r\\n\\t</div>\\r\\n\\r\\n\\t<script type="text/javascript">\\r\\n\\r\\n\\t\\t$(function() {\\r\\n\\t\\t\\r\\n\\t\\t\\t$("#slideshow > div:gt(0)").hide();\\r\\n\\t\\r\\n\\t\\t\\tsetInterval(function() { \\r\\n\\t\\t\\t  $(\\\'#slideshow > div:first\\\')\\r\\n\\t\\t\\t    .fadeOut()\\r\\n\\t\\t\\t    .next()\\r\\n\\t\\t\\t    .fadeIn()\\r\\n\\t\\t\\t    .end()\\r\\n\\t\\t\\t    .appendTo(\\\'#slideshow\\\');\\r\\n\\t\\t\\t},  2400);\\r\\n\\t\\t\\t\\r\\n\\t\\t});\\r\\n\\r\\n\\t\\t$(function() {\\r\\n\\t\\t\\r\\n\\t\\t\\t$("#slideshow1 > div:gt(0)").hide();\\r\\n\\t\\r\\n\\t\\t\\tsetInterval(function() { \\r\\n\\t\\t\\t  $(\\\'#slideshow1 > div:first\\\')\\r\\n\\t\\t\\t    .fadeOut()\\r\\n\\t\\t\\t    .next()\\r\\n\\t\\t\\t    .fadeIn()\\r\\n\\t\\t\\t    .end()\\r\\n\\t\\t\\t    .appendTo(\\\'#slideshow1\\\');\\r\\n\\t\\t\\t},  3400);\\r\\n\\t\\t\\t\\r\\n\\t\\t});\\r\\n\\t\\t$(function() {\\r\\n\\t\\t\\r\\n\\t\\t\\t$("#slideshow2 > div:gt(0)").hide();\\r\\n\\t\\r\\n\\t\\t\\tsetInterval(function() { \\r\\n\\t\\t\\t  $(\\\'#slideshow2 > div:first\\\')\\r\\n\\t\\t\\t    .fadeOut()\\r\\n\\t\\t\\t    .next()\\r\\n\\t\\t\\t    .fadeIn()\\r\\n\\t\\t\\t    .end()\\r\\n\\t\\t\\t    .appendTo(\\\'#slideshow2\\\');\\r\\n\\t\\t\\t},  1400);\\r\\n\\t\\t\\t\\r\\n\\t\\t});\\r\\n\\t\\t$(function() {\\r\\n\\t\\t\\r\\n\\t\\t\\t$("#slideshow3 > div:gt(0)").hide();\\r\\n\\t\\r\\n\\t\\t\\tsetInterval(function() { \\r\\n\\t\\t\\t  $(\\\'#slideshow3 > div:first\\\')\\r\\n\\t\\t\\t    .fadeOut()\\r\\n\\t\\t\\t    .next()\\r\\n\\t\\t\\t    .fadeIn()\\r\\n\\t\\t\\t    .end()\\r\\n\\t\\t\\t    .appendTo(\\\'#slideshow3\\\');\\r\\n\\t\\t\\t},  1800);\\r\\n\\t\\t\\t\\r\\n\\t\\t});\\r\\n\\t\\t$(function() {\\r\\n\\t\\t\\r\\n\\t\\t\\t$("#slideshow4 > div:gt(0)").hide();\\r\\n\\t\\r\\n\\t\\t\\tsetInterval(function() { \\r\\n\\t\\t\\t  $(\\\'#slideshow4 > div:first\\\')\\r\\n\\t\\t\\t    .fadeOut()\\r\\n\\t\\t\\t    .next()\\r\\n\\t\\t\\t    .fadeIn()\\r\\n\\t\\t\\t    .end()\\r\\n\\t\\t\\t    .appendTo(\\\'#slideshow4\\\');\\r\\n\\t\\t\\t},  2800);\\r\\n\\t\\t\\t\\r\\n\\t\\t});\\r\\n\\t\\t$(function() {\\r\\n\\t\\t\\r\\n\\t\\t\\t$("#slideshow5 > div:gt(0)").hide();\\r\\n\\t\\r\\n\\t\\t\\tsetInterval(function() { \\r\\n\\t\\t\\t  $(\\\'#slideshow5 > div:first\\\')\\r\\n\\t\\t\\t    .fadeOut()\\r\\n\\t\\t\\t    .next()\\r\\n\\t\\t\\t    .fadeIn()\\r\\n\\t\\t\\t    .end()\\r\\n\\t\\t\\t    .appendTo(\\\'#slideshow5\\\');\\r\\n\\t\\t\\t},  3800);\\r\\n\\t\\t\\t\\r\\n\\t\\t});\\r\\n\\t\\t$(function() {\\r\\n\\t\\t\\r\\n\\t\\t\\t$("#slideshow6 > div:gt(0)").hide();\\r\\n\\t\\r\\n\\t\\t\\tsetInterval(function() { \\r\\n\\t\\t\\t  $(\\\'#slideshow6 > div:first\\\')\\r\\n\\t\\t\\t    .fadeOut()\\r\\n\\t\\t\\t    .next()\\r\\n\\t\\t\\t    .fadeIn()\\r\\n\\t\\t\\t    .end()\\r\\n\\t\\t\\t    .appendTo(\\\'#slideshow6\\\');\\r\\n\\t\\t\\t},  4800);\\r\\n\\t\\t\\t\\r\\n\\t\\t});\\r\\n\\t\\t$(function() {\\r\\n\\t\\t\\r\\n\\t\\t\\t$("#slideshow7 > div:gt(0)").hide();\\r\\n\\t\\r\\n\\t\\t\\tsetInterval(function() { \\r\\n\\t\\t\\t  $(\\\'#slideshow7 > div:first\\\')\\r\\n\\t\\t\\t    .fadeOut()\\r\\n\\t\\t\\t    .next()\\r\\n\\t\\t\\t    .fadeIn()\\r\\n\\t\\t\\t    .end()\\r\\n\\t\\t\\t    .appendTo(\\\'#slideshow7\\\');\\r\\n\\t\\t\\t},  4400);\\r\\n\\t\\t\\t\\r\\n\\t\\t});\\r\\n\\t\\t$(function() {\\r\\n\\t\\t\\r\\n\\t\\t\\t$("#slideshow8 > div:gt(0)").hide();\\r\\n\\t\\r\\n\\t\\t\\tsetInterval(function() { \\r\\n\\t\\t\\t  $(\\\'#slideshow8 > div:first\\\')\\r\\n\\t\\t\\t    .fadeOut()\\r\\n\\t\\t\\t    .next()\\r\\n\\t\\t\\t    .fadeIn()\\r\\n\\t\\t\\t    .end()\\r\\n\\t\\t\\t    .appendTo(\\\'#slideshow8\\\');\\r\\n\\t\\t\\t},  3400);\\r\\n\\t\\t\\t\\r\\n\\t\\t});\\r\\n\\t\\t$(function() {\\r\\n\\t\\t\\r\\n\\t\\t\\t$("#slideshow9 > div:gt(0)").hide();\\r\\n\\t\\r\\n\\t\\t\\tsetInterval(function() { \\r\\n\\t\\t\\t  $(\\\'#slideshow9 > div:first\\\')\\r\\n\\t\\t\\t    .fadeOut()\\r\\n\\t\\t\\t    .next()\\r\\n\\t\\t\\t    .fadeIn()\\r\\n\\t\\t\\t    .end()\\r\\n\\t\\t\\t    .appendTo(\\\'#slideshow9\\\');\\r\\n\\t\\t\\t},  5400);\\r\\n\\t\\t\\t\\r\\n\\t\\t});\\r\\n\\t\\t\\r\\n\\t</script>\\r\\n</body>\\r\\n</html>\\r\\n\', escape=False)'
p7
sS'snapshot'
p8
(dp9
S'exception'
p10
(dp11
S'__getslice__'
p12
S"<method-wrapper '__getslice__' of exceptions.SyntaxError object>"
p13
sS'text'
p14
S'\'response.write(URL(\\\'static\\\',\\\'images/logomain.svg">\\n\''
p15
sS'__str__'
p16
S"<method-wrapper '__str__' of exceptions.SyntaxError object>"
p17
sS'__reduce__'
p18
S'<built-in method __reduce__ of exceptions.SyntaxError object>'
p19
sS'__dict__'
p20
S'{}'
p21
sS'__sizeof__'
p22
S'<built-in method __sizeof__ of exceptions.SyntaxError object>'
p23
sS'__init__'
p24
S"<method-wrapper '__init__' of exceptions.SyntaxError object>"
p25
sS'__setattr__'
p26
S"<method-wrapper '__setattr__' of exceptions.SyntaxError object>"
p27
sS'__reduce_ex__'
p28
S'<built-in method __reduce_ex__ of exceptions.SyntaxError object>'
p29
sS'__new__'
p30
S'<built-in method __new__ of type object>'
p31
sS'__format__'
p32
S'<built-in method __format__ of exceptions.SyntaxError object>'
p33
sS'__class__'
p34
S"<type 'exceptions.SyntaxError'>"
p35
sS'filename'
p36
S"'/home/user/Documents/web2py/applications/IMAGE_JOURNAL2/views/default/login.html'"
p37
sS'lineno'
p38
S'8'
sS'msg'
p39
S"'EOL while scanning string literal'"
p40
sS'__doc__'
p41
S"'Invalid syntax.'"
p42
sS'__getitem__'
p43
S"<method-wrapper '__getitem__' of exceptions.SyntaxError object>"
p44
sS'__setstate__'
p45
S'<built-in method __setstate__ of exceptions.SyntaxError object>'
p46
sS'__getattribute__'
p47
S"<method-wrapper '__getattribute__' of exceptions.SyntaxError object>"
p48
sS'print_file_and_line'
p49
S'None'
p50
sS'args'
p51
S'(\'EOL while scanning string literal\', (\'/home/user/Documents/web2py/applications/IMAGE_JOURNAL2/views/default/login.html\', 8, 50, \'response.write(URL(\\\'static\\\',\\\'images/logomain.svg">\\n\'))'
p52
sS'__subclasshook__'
p53
S'<built-in method __subclasshook__ of type object>'
p54
sS'offset'
p55
S'50'
p56
sS'__unicode__'
p57
S'<built-in method __unicode__ of exceptions.SyntaxError object>'
p58
sS'__delattr__'
p59
S"<method-wrapper '__delattr__' of exceptions.SyntaxError object>"
p60
sS'__repr__'
p61
S"<method-wrapper '__repr__' of exceptions.SyntaxError object>"
p62
sS'__hash__'
p63
S"<method-wrapper '__hash__' of exceptions.SyntaxError object>"
p64
ssS'evalue'
p65
S'EOL while scanning string literal (login.html, line 8)'
p66
sS'request'
p67
cgluon.html
XML_unpickle
p68
(S'sv[\x00\x00<div><table><tr><td style="font-weight:bold;vertical-align:top;">ajax</td><td style="vertical-align:top;">:</td><td><div>False</div></td></tr><tr><td style="font-weight:bold;vertical-align:top;">application</td><td style="vertical-align:top;">:</td><td><div>IMAGE_JOURNAL2</div></td></tr><tr><td style="font-weight:bold;vertical-align:top;">args</td><td style="vertical-align:top;">:</td><td><div><table></table></div></td></tr><tr><td style="font-weight:bold;vertical-align:top;">cid</td><td style="vertical-align:top;">:</td><td><div>None</div></td></tr><tr><td style="font-weight:bold;vertical-align:top;">client</td><td style="vertical-align:top;">:</td><td><div>127.0.0.1</div></td></tr><tr><td style="font-weight:bold;vertical-align:top;">controller</td><td style="vertical-align:top;">:</td><td><div>default</div></td></tr><tr><td style="font-weight:bold;vertical-align:top;">cookies</td><td style="vertical-align:top;">:</td><td><div><table><tr><td style="font-weight:bold;vertical-align:top;">session_id_admin</td><td style="vertical-align:top;">:</td><td><div>127.0.0.1-cb7080ad-dd92-4d6c-b699-1a9f1af08a77<table><tr><td style="font-weight:bold;vertical-align:top;">comment</td><td style="vertical-align:top;">:</td><td><div></div></td></tr><tr><td style="font-weight:bold;vertical-align:top;">domain</td><td style="vertical-align:top;">:</td><td><div></div></td></tr><tr><td style="font-weight:bold;vertical-align:top;">expires</td><td style="vertical-align:top;">:</td><td><div></div></td></tr><tr><td style="font-weight:bold;vertical-align:top;">httponly</td><td style="vertical-align:top;">:</td><td><div></div></td></tr><tr><td style="font-weight:bold;vertical-align:top;">max-age</td><td style="vertical-align:top;">:</td><td><div></div></td></tr><tr><td style="font-weight:bold;vertical-align:top;">path</td><td style="vertical-align:top;">:</td><td><div></div></td></tr><tr><td style="font-weight:bold;vertical-align:top;">secure</td><td style="vertical-align:top;">:</td><td><div></div></td></tr><tr><td style="font-weight:bold;vertical-align:top;">version</td><td style="vertical-align:top;">:</td><td><div></div></td></tr></table></div></td></tr><tr><td style="font-weight:bold;vertical-align:top;">session_id_image_journal2</td><td style="vertical-align:top;">:</td><td><div>127.0.0.1-fe1764d4-5347-4a81-b06c-712b23fcc9e8<table><tr><td style="font-weight:bold;vertical-align:top;">comment</td><td style="vertical-align:top;">:</td><td><div></div></td></tr><tr><td style="font-weight:bold;vertical-align:top;">domain</td><td style="vertical-align:top;">:</td><td><div></div></td></tr><tr><td style="font-weight:bold;vertical-align:top;">expires</td><td style="vertical-align:top;">:</td><td><div></div></td></tr><tr><td style="font-weight:bold;vertical-align:top;">httponly</td><td style="vertical-align:top;">:</td><td><div></div></td></tr><tr><td style="font-weight:bold;vertical-align:top;">max-age</td><td style="vertical-align:top;">:</td><td><div></div></td></tr><tr><td style="font-weight:bold;vertical-align:top;">path</td><td style="vertical-align:top;">:</td><td><div></div></td></tr><tr><td style="font-weight:bold;vertical-align:top;">secure</td><td style="vertical-align:top;">:</td><td><div></div></td></tr><tr><td style="font-weight:bold;vertical-align:top;">version</td><td style="vertical-align:top;">:</td><td><div></div></td></tr></table></div></td></tr><tr><td style="font-weight:bold;vertical-align:top;">session_id_welcome</td><td style="vertical-align:top;">:</td><td><div>127.0.0.1-a7423986-d741-4167-8ff3-6c1e99ef6338<table><tr><td style="font-weight:bold;vertical-align:top;">comment</td><td style="vertical-align:top;">:</td><td><div></div></td></tr><tr><td style="font-weight:bold;vertical-align:top;">domain</td><td style="vertical-align:top;">:</td><td><div></div></td></tr><tr><td style="font-weight:bold;vertical-align:top;">expires</td><td style="vertical-align:top;">:</td><td><div></div></td></tr><tr><td style="font-weight:bold;vertical-align:top;">httponly</td><td style="vertical-align:top;">:</td><td><div></div></td></tr><tr><td style="font-weight:bold;vertical-align:top;">max-age</td><td style="vertical-align:top;">:</td><td><div></div></td></tr><tr><td style="font-weight:bold;vertical-align:top;">path</td><td style="vertical-align:top;">:</td><td><div></div></td></tr><tr><td style="font-weight:bold;vertical-align:top;">secure</td><td style="vertical-align:top;">:</td><td><div></div></td></tr><tr><td style="font-weight:bold;vertical-align:top;">version</td><td style="vertical-align:top;">:</td><td><div></div></td></tr></table></div></td></tr></table></div></td></tr><tr><td style="font-weight:bold;vertical-align:top;">env</td><td style="vertical-align:top;">:</td><td><div><table><tr><td style="font-weight:bold;vertical-align:top;">HTTP_ACCEPT</td><td style="vertical-align:top;">:</td><td><div>text/html,application/xhtml+xml,application/xml;q=0.9,*/*;q=0.8</div></td></tr><tr><td style="font-weight:bold;vertical-align:top;">HTTP_ACCEPT_ENCODING</td><td style="vertical-align:top;">:</td><td><div>gzip, deflate</div></td></tr><tr><td style="font-weight:bold;vertical-align:top;">HTTP_ACCEPT_LANGUAGE</td><td style="vertical-align:top;">:</td><td><div>en-US,en;q=0.5</div></td></tr><tr><td style="font-weight:bold;vertical-align:top;">HTTP_CACHE_CONTROL</td><td style="vertical-align:top;">:</td><td><div>max-age=0</div></td></tr><tr><td style="font-weight:bold;vertical-align:top;">HTTP_CONNECTION</td><td style="vertical-align:top;">:</td><td><div>keep-alive</div></td></tr><tr><td style="font-weight:bold;vertical-align:top;">HTTP_COOKIE</td><td style="vertical-align:top;">:</td><td><div>session_id_welcome=127.0.0.1-a7423986-d741-4167-8ff3-6c1e99ef6338; session_id_admin=127.0.0.1-cb7080ad-dd92-4d6c-b699-1a9f1af08a77; session_id_image_journal2=127.0.0.1-fe1764d4-5347-4a81-b06c-712b23fcc9e8</div></td></tr><tr><td style="font-weight:bold;vertical-align:top;">HTTP_HOST</td><td style="vertical-align:top;">:</td><td><div>127.0.0.1:8000</div></td></tr><tr><td style="font-weight:bold;vertical-align:top;">HTTP_REFERER</td><td style="vertical-align:top;">:</td><td><div>http://127.0.0.1:8000/admin/default/design/IMAGE_JOURNAL2</div></td></tr><tr><td style="font-weight:bold;vertical-align:top;">HTTP_USER_AGENT</td><td style="vertical-align:top;">:</td><td><div>Mozilla/5.0 (X11; Ubuntu; Linux x86_64; rv:28.0) Gecko/20100101 Firefox/28.0</div></td></tr><tr><td style="font-weight:bold;vertical-align:top;">PATH_INFO</td><td style="vertical-align:top;">:</td><td><div>/IMAGE_JOURNAL2/default/login</div></td></tr><tr><td style="font-weight:bold;vertical-align:top;">QUERY_STRING</td><td style="vertical-align:top;">:</td><td><div></div></td></tr><tr><td style="font-weight:bold;vertical-align:top;">REMOTE_ADDR</td><td style="vertical-align:top;">:</td><td><div>127.0.0.1</div></td></tr><tr><td style="font-weight:bold;vertical-align:top;">REMOTE_PORT</td><td style="vertical-align:top;">:</td><td><div>52519</div></td></tr><tr><td style="font-weight:bold;vertical-align:top;">REQUEST_METHOD</td><td style="vertical-align:top;">:</td><td><div>GET</div></td></tr><tr><td style="font-weight:bold;vertical-align:top;">SCRIPT_NAME</td><td style="vertical-align:top;">:</td><td><div></div></td></tr><tr><td style="font-weight:bold;vertical-align:top;">SERVER_NAME</td><td style="vertical-align:top;">:</td><td><div>user-Inspiron-5521</div></td></tr><tr><td style="font-weight:bold;vertical-align:top;">SERVER_PORT</td><td style="vertical-align:top;">:</td><td><div>8000</div></td></tr><tr><td style="font-weight:bold;vertical-align:top;">SERVER_PROTOCOL</td><td style="vertical-align:top;">:</td><td><div>HTTP/1.1</div></td></tr><tr><td style="font-weight:bold;vertical-align:top;">SERVER_SOFTWARE</td><td style="vertical-align:top;">:</td><td><div>Rocket 1.2.6</div></td></tr><tr><td style="font-weight:bold;vertical-align:top;">app_folders</td><td style="vertical-align:top;">:</td><td><div>set([&#x27;/home/user/Documents/web2py/applications/welcome/&#x27;, &#x27;/home/user/Documents/web2py/applications/admin/&#x27;, &#x27;/home/user/Documents/web2py/applications/IMAGE_JOURNAL2/&#x27;])</div></td></tr><tr><td style="font-weight:bold;vertical-align:top;">applications_parent</td><td style="vertical-align:top;">:</td><td><div>/home/user/Documents/web2py</div></td></tr><tr><td style="font-weight:bold;vertical-align:top;">cmd_args</td><td style="vertical-align:top;">:</td><td><div><table></table></div></td></tr><tr><td style="font-weight:bold;vertical-align:top;">cmd_options</td><td style="vertical-align:top;">:</td><td><div>&lt;Values at 0x1799b00: {&#x27;verbose&#x27;: False, &#x27;ip&#x27;: &#x27;127.0.0.1&#x27;, &#x27;debuglevel&#x27;: 30, &#x27;with_scheduler&#x27;: False, &#x27;ips&#x27;: [&#x27;127.0.1.1&#x27;], &#x27;shutdown_timeout&#x27;: 5, &#x27;taskbar&#x27;: False, &#x27;with_coverage&#x27;: False, &#x27;port&#x27;: 8000, &#x27;maxthreads&#x27;: None, &#x27;softcron&#x27;: False, &#x27;server_name&#x27;: &#x27;user-Inspiron-5521&#x27;, &#x27;bpython&#x27;: False, &#x27;nogui&#x27;: False, &#x27;pid_filename&#x27;: &#x27;httpserver.pid&#x27;, &#x27;extcron&#x27;: False, &#x27;runcron&#x27;: False, &#x27;run_system_tests&#x27;: False, &#x27;test&#x27;: None, &#x27;folder&#x27;: &#x27;/home/user/Documents/web2py&#x27;, &#x27;config&#x27;: &#x27;&#x27;, &#x27;minthreads&#x27;: None, &#x27;shell&#x27;: None, &#x27;run&#x27;: &#x27;&#x27;, &#x27;log_filename&#x27;: &#x27;httpserver.log&#x27;, &#x27;profiler_dir&#x27;: None, &#x27;args&#x27;: [&#x27;&#x27;], &#x27;socket_timeout&#x27;: 5, &#x27;ssl_ca_certificate&#x27;: None, &#x27;scheduler&#x27;: None, &#x27;interfaces&#x27;: None, &#x27;ssl_private_key&#x27;: &#x27;&#x27;, &#x27;scheduler_groups&#x27;: None, &#x27;password&#x27;: &#x27;hello&#x27;, &#x27;request_queue_size&#x27;: 5, &#x27;ssl_certificate&#x27;: &#x27;&#x27;, &#x27;cronjob&#x27;: False, &#x27;numthreads&#x27;: None, &#x27;quiet&#x27;: False, &#x27;import_models&#x27;: False, &#x27;timeout&#x27;: 10, &#x27;plain&#x27;: False, &#x27;nobanner&#x27;: False}&gt;</div></td></tr><tr><td style="font-weight:bold;vertical-align:top;">db_sessions</td><td style="vertical-align:top;">:</td><td><div>set([])</div></td></tr><tr><td style="font-weight:bold;vertical-align:top;">debugging</td><td style="vertical-align:top;">:</td><td><div>False</div></td></tr><tr><td style="font-weight:bold;vertical-align:top;">gluon_parent</td><td style="vertical-align:top;">:</td><td><div>/home/user/Documents/web2py</div></td></tr><tr><td style="font-weight:bold;vertical-align:top;">http_accept</td><td style="vertical-align:top;">:</td><td><div>text/html,application/xhtml+xml,application/xml;q=0.9,*/*;q=0.8</div></td></tr><tr><td style="font-weight:bold;vertical-align:top;">http_accept_encoding</td><td style="vertical-align:top;">:</td><td><div>gzip, deflate</div></td></tr><tr><td style="font-weight:bold;vertical-align:top;">http_accept_language</td><td style="vertical-align:top;">:</td><td><div>en-US,en;q=0.5</div></td></tr><tr><td style="font-weight:bold;vertical-align:top;">http_cache_control</td><td style="vertical-align:top;">:</td><td><div>max-age=0</div></td></tr><tr><td style="font-weight:bold;vertical-align:top;">http_connection</td><td style="vertical-align:top;">:</td><td><div>keep-alive</div></td></tr><tr><td style="font-weight:bold;vertical-align:top;">http_cookie</td><td style="vertical-align:top;">:</td><td><div>session_id_welcome=127.0.0.1-a7423986-d741-4167-8ff3-6c1e99ef6338; session_id_admin=127.0.0.1-cb7080ad-dd92-4d6c-b699-1a9f1af08a77; session_id_image_journal2=127.0.0.1-fe1764d4-5347-4a81-b06c-712b23fcc9e8</div></td></tr><tr><td style="font-weight:bold;vertical-align:top;">http_host</td><td style="vertical-align:top;">:</td><td><div>127.0.0.1:8000</div></td></tr><tr><td style="font-weight:bold;vertical-align:top;">http_referer</td><td style="vertical-align:top;">:</td><td><div>http://127.0.0.1:8000/admin/default/design/IMAGE_JOURNAL2</div></td></tr><tr><td style="font-weight:bold;vertical-align:top;">http_user_agent</td><td style="vertical-align:top;">:</td><td><div>Mozilla/5.0 (X11; Ubuntu; Linux x86_64; rv:28.0) Gecko/20100101 Firefox/28.0</div></td></tr><tr><td style="font-weight:bold;vertical-align:top;">is_jython</td><td style="vertical-align:top;">:</td><td><div>False</div></td></tr><tr><td style="font-weight:bold;vertical-align:top;">is_pypy</td><td style="vertical-align:top;">:</td><td><div>False</div></td></tr><tr><td style="font-weight:bold;vertical-align:top;">is_source</td><td style="vertical-align:top;">:</td><td><div>True</div></td></tr><tr><td style="font-weight:bold;vertical-align:top;">local_hosts</td><td style="vertical-align:top;">:</td><td><div><table><tr><td><div>user-Inspiron-5521</div></td></tr><tr><td><div>::1</div></td></tr><tr><td><div>127.0.1.1</div></td></tr><tr><td><div>::ffff:127.0.0.1</div></td></tr><tr><td><div>127.0.0.1</div></td></tr></table></div></td></tr><tr><td style="font-weight:bold;vertical-align:top;">path_info</td><td style="vertical-align:top;">:</td><td><div>/IMAGE_JOURNAL2/default/login</div></td></tr><tr><td style="font-weight:bold;vertical-align:top;">query_string</td><td style="vertical-align:top;">:</td><td><div></div></td></tr><tr><td style="font-weight:bold;vertical-align:top;">remote_addr</td><td style="vertical-align:top;">:</td><td><div>127.0.0.1</div></td></tr><tr><td style="font-weight:bold;vertical-align:top;">remote_port</td><td style="vertical-align:top;">:</td><td><div>52519</div></td></tr><tr><td style="font-weight:bold;vertical-align:top;">request_method</td><td style="vertical-align:top;">:</td><td><div>GET</div></td></tr><tr><td style="font-weight:bold;vertical-align:top;">request_uri</td><td style="vertical-align:top;">:</td><td><div>/IMAGE_JOURNAL2/default/login</div></td></tr><tr><td style="font-weight:bold;vertical-align:top;">script_name</td><td style="vertical-align:top;">:</td><td><div></div></td></tr><tr><td style="font-weight:bold;vertical-align:top;">server_name</td><td style="vertical-align:top;">:</td><td><div>user-Inspiron-5521</div></td></tr><tr><td style="font-weight:bold;vertical-align:top;">server_port</td><td style="vertical-align:top;">:</td><td><div>8000</div></td></tr><tr><td style="font-weight:bold;vertical-align:top;">server_protocol</td><td style="vertical-align:top;">:</td><td><div>HTTP/1.1</div></td></tr><tr><td style="font-weight:bold;vertical-align:top;">server_software</td><td style="vertical-align:top;">:</td><td><div>Rocket 1.2.6</div></td></tr><tr><td style="font-weight:bold;vertical-align:top;">web2py_path</td><td style="vertical-align:top;">:</td><td><div>/home/user/Documents/web2py</div></td></tr><tr><td style="font-weight:bold;vertical-align:top;">web2py_version</td><td style="vertical-align:top;">:</td><td><div>2.9.4-stable+timestamp.2014.03.05.04.44.09</div></td></tr><tr><td style="font-weight:bold;vertical-align:top;">wsgi.errors</td><td style="vertical-align:top;">:</td><td><div>&lt;open file &#x27;&lt;stderr&gt;&#x27;, mode &#x27;w&#x27; at 0x7f7c997861e0&gt;</div></td></tr><tr><td style="font-weight:bold;vertical-align:top;">wsgi.file_wrapper</td><td style="vertical-align:top;">:</td><td><div>&lt;class wsgiref.util.FileWrapper at 0x16e3bb0&gt;</div></td></tr><tr><td style="font-weight:bold;vertical-align:top;">wsgi.input</td><td style="vertical-align:top;">:</td><td><div>&lt;socket._fileobject object at 0x7f7c8c2375d0&gt;</div></td></tr><tr><td style="font-weight:bold;vertical-align:top;">wsgi.multiprocess</td><td style="vertical-align:top;">:</td><td><div>False</div></td></tr><tr><td style="font-weight:bold;vertical-align:top;">wsgi.multithread</td><td style="vertical-align:top;">:</td><td><div>True</div></td></tr><tr><td style="font-weight:bold;vertical-align:top;">wsgi.run_once</td><td style="vertical-align:top;">:</td><td><div>False</div></td></tr><tr><td style="font-weight:bold;vertical-align:top;">wsgi.url_scheme</td><td style="vertical-align:top;">:</td><td><div>http</div></td></tr><tr><td style="font-weight:bold;vertical-align:top;">wsgi.version</td><td style="vertical-align:top;">:</td><td><div><table><tr><td><div>1</div></td></tr><tr><td><div>0</div></td></tr></table></div></td></tr><tr><td style="font-weight:bold;vertical-align:top;">wsgi_errors</td><td style="vertical-align:top;">:</td><td><div>&lt;open file &#x27;&lt;stderr&gt;&#x27;, mode &#x27;w&#x27; at 0x7f7c997861e0&gt;</div></td></tr><tr><td style="font-weight:bold;vertical-align:top;">wsgi_file_wrapper</td><td style="vertical-align:top;">:</td><td><div>&lt;class wsgiref.util.FileWrapper at 0x16e3bb0&gt;</div></td></tr><tr><td style="font-weight:bold;vertical-align:top;">wsgi_input</td><td style="vertical-align:top;">:</td><td><div>&lt;socket._fileobject object at 0x7f7c8c2375d0&gt;</div></td></tr><tr><td style="font-weight:bold;vertical-align:top;">wsgi_multiprocess</td><td style="vertical-align:top;">:</td><td><div>False</div></td></tr><tr><td style="font-weight:bold;vertical-align:top;">wsgi_multithread</td><td style="vertical-align:top;">:</td><td><div>True</div></td></tr><tr><td style="font-weight:bold;vertical-align:top;">wsgi_run_once</td><td style="vertical-align:top;">:</td><td><div>False</div></td></tr><tr><td style="font-weight:bold;vertical-align:top;">wsgi_url_scheme</td><td style="vertical-align:top;">:</td><td><div>http</div></td></tr><tr><td style="font-weight:bold;vertical-align:top;">wsgi_version</td><td style="vertical-align:top;">:</td><td><div><table><tr><td><div>1</div></td></tr><tr><td><div>0</div></td></tr></table></div></td></tr></table></div></td></tr><tr><td style="font-weight:bold;vertical-align:top;">extension</td><td style="vertical-align:top;">:</td><td><div>html</div></td></tr><tr><td style="font-weight:bold;vertical-align:top;">folder</td><td style="vertical-align:top;">:</td><td><div>/home/user/Documents/web2py/applications/IMAGE_JOURNAL2/</div></td></tr><tr><td style="font-weight:bold;vertical-align:top;">function</td><td style="vertical-align:top;">:</td><td><div>login</div></td></tr><tr><td style="font-weight:bold;vertical-align:top;">global_settings</td><td style="vertical-align:top;">:</td><td><div><table><tr><td style="font-weight:bold;vertical-align:top;">app_folders</td><td style="vertical-align:top;">:</td><td><div>set([&#x27;/home/user/Documents/web2py/applications/welcome/&#x27;, &#x27;/home/user/Documents/web2py/applications/admin/&#x27;, &#x27;/home/user/Documents/web2py/applications/IMAGE_JOURNAL2/&#x27;])</div></td></tr><tr><td style="font-weight:bold;vertical-align:top;">applications_parent</td><td style="vertical-align:top;">:</td><td><div>/home/user/Documents/web2py</div></td></tr><tr><td style="font-weight:bold;vertical-align:top;">cmd_args</td><td style="vertical-align:top;">:</td><td><div><table></table></div></td></tr><tr><td style="font-weight:bold;vertical-align:top;">cmd_options</td><td style="vertical-align:top;">:</td><td><div>&lt;Values at 0x1799b00: {&#x27;verbose&#x27;: False, &#x27;ip&#x27;: &#x27;127.0.0.1&#x27;, &#x27;debuglevel&#x27;: 30, &#x27;with_scheduler&#x27;: False, &#x27;ips&#x27;: [&#x27;127.0.1.1&#x27;], &#x27;shutdown_timeout&#x27;: 5, &#x27;taskbar&#x27;: False, &#x27;with_coverage&#x27;: False, &#x27;port&#x27;: 8000, &#x27;maxthreads&#x27;: None, &#x27;softcron&#x27;: False, &#x27;server_name&#x27;: &#x27;user-Inspiron-5521&#x27;, &#x27;bpython&#x27;: False, &#x27;nogui&#x27;: False, &#x27;pid_filename&#x27;: &#x27;httpserver.pid&#x27;, &#x27;extcron&#x27;: False, &#x27;runcron&#x27;: False, &#x27;run_system_tests&#x27;: False, &#x27;test&#x27;: None, &#x27;folder&#x27;: &#x27;/home/user/Documents/web2py&#x27;, &#x27;config&#x27;: &#x27;&#x27;, &#x27;minthreads&#x27;: None, &#x27;shell&#x27;: None, &#x27;run&#x27;: &#x27;&#x27;, &#x27;log_filename&#x27;: &#x27;httpserver.log&#x27;, &#x27;profiler_dir&#x27;: None, &#x27;args&#x27;: [&#x27;&#x27;], &#x27;socket_timeout&#x27;: 5, &#x27;ssl_ca_certificate&#x27;: None, &#x27;scheduler&#x27;: None, &#x27;interfaces&#x27;: None, &#x27;ssl_private_key&#x27;: &#x27;&#x27;, &#x27;scheduler_groups&#x27;: None, &#x27;password&#x27;: &#x27;hello&#x27;, &#x27;request_queue_size&#x27;: 5, &#x27;ssl_certificate&#x27;: &#x27;&#x27;, &#x27;cronjob&#x27;: False, &#x27;numthreads&#x27;: None, &#x27;quiet&#x27;: False, &#x27;import_models&#x27;: False, &#x27;timeout&#x27;: 10, &#x27;plain&#x27;: False, &#x27;nobanner&#x27;: False}&gt;</div></td></tr><tr><td style="font-weight:bold;vertical-align:top;">db_sessions</td><td style="vertical-align:top;">:</td><td><div>set([])</div></td></tr><tr><td style="font-weight:bold;vertical-align:top;">debugging</td><td style="vertical-align:top;">:</td><td><div>False</div></td></tr><tr><td style="font-weight:bold;vertical-align:top;">gluon_parent</td><td style="vertical-align:top;">:</td><td><div>/home/user/Documents/web2py</div></td></tr><tr><td style="font-weight:bold;vertical-align:top;">is_jython</td><td style="vertical-align:top;">:</td><td><div>False</div></td></tr><tr><td style="font-weight:bold;vertical-align:top;">is_pypy</td><td style="vertical-align:top;">:</td><td><div>False</div></td></tr><tr><td style="font-weight:bold;vertical-align:top;">is_source</td><td style="vertical-align:top;">:</td><td><div>True</div></td></tr><tr><td style="font-weight:bold;vertical-align:top;">local_hosts</td><td style="vertical-align:top;">:</td><td><div><table><tr><td><div>user-Inspiron-5521</div></td></tr><tr><td><div>::1</div></td></tr><tr><td><div>127.0.1.1</div></td></tr><tr><td><div>::ffff:127.0.0.1</div></td></tr><tr><td><div>127.0.0.1</div></td></tr></table></div></td></tr><tr><td style="font-weight:bold;vertical-align:top;">web2py_version</td><td style="vertical-align:top;">:</td><td><div>2.9.4-stable+timestamp.2014.03.05.04.44.09</div></td></tr></table></div></td></tr><tr><td style="font-weight:bold;vertical-align:top;">is_https</td><td style="vertical-align:top;">:</td><td><div>False</div></td></tr><tr><td style="font-weight:bold;vertical-align:top;">is_local</td><td style="vertical-align:top;">:</td><td><div>True</div></td></tr><tr><td style="font-weight:bold;vertical-align:top;">is_restful</td><td style="vertical-align:top;">:</td><td><div>False</div></td></tr><tr><td style="font-weight:bold;vertical-align:top;">now</td><td style="vertical-align:top;">:</td><td><div>datetime.datetime(2014, 4, 9, 21, 40, 51, 34935)</div></td></tr><tr><td style="font-weight:bold;vertical-align:top;">raw_args</td><td style="vertical-align:top;">:</td><td><div></div></td></tr><tr><td style="font-weight:bold;vertical-align:top;">raw_extension</td><td style="vertical-align:top;">:</td><td><div>None</div></td></tr><tr><td style="font-weight:bold;vertical-align:top;">url</td><td style="vertical-align:top;">:</td><td><div>/IMAGE_JOURNAL2/default/login</div></td></tr><tr><td style="font-weight:bold;vertical-align:top;">utcnow</td><td style="vertical-align:top;">:</td><td><div>datetime.datetime(2014, 4, 9, 16, 10, 51, 35000)</div></td></tr><tr><td style="font-weight:bold;vertical-align:top;">uuid</td><td style="vertical-align:top;">:</td><td><div>IMAGE_JOURNAL2/127.0.0.1.2014-04-09.21-40-51.e93f4a28-24be-4bd2-b911-e3c61c30b156</div></td></tr><tr><td style="font-weight:bold;vertical-align:top;">wsgi</td><td style="vertical-align:top;">:</td><td><div>&lt;gluon.main.LazyWSGI object at 0x7f7c845eb810&gt;</div></td></tr></table></div>'
tRp69
sS'frames'
p70
(lp71
(dp72
S'file'
p73
S'/home/user/Documents/web2py/gluon/restricted.py'
p74
sS'dump'
p75
(dp76
S'code'
p77
S'r"response.write(\'<!DOCTYPE html>\\r\\n<html>\\r\\n<he...script>\\r\\n</body>\\r\\n</html>\\r\\n\', escape=False)"'
p78
sS'layer'
p79
S"'/home/user/Documents/web2py/applications/IMAGE_JOURNAL2/views/default/login.html'"
p80
sS'global compile2'
p81
S'<function compile2>'
p82
sS'ccode'
p83
S'undefined'
p84
ssS'lnum'
p85
I216
sS'lines'
p86
(dp87
I211
S"    environment['__name__'] = '__restricted__'"
p88
sI212
S'    try:'
p89
sI213
S'        if isinstance(code, types.CodeType):'
p90
sI214
S'            ccode = code'
p91
sI215
S'        else:'
p92
sI216
S'            ccode = compile2(code, layer)'
p93
sI217
S'        exec ccode in environment'
p94
sI218
S'    except HTTP:'
p95
sI219
S'        raise'
p96
sI220
S'    except RestrictedError:'
p97
ssS'call'
p98
S'(code=r"response.write(\'<!DOCTYPE html>\\r\\n<html>\\r\\n<he...script>\\r\\n</body>\\r\\n</html>\\r\\n\', escape=False)", environment={\'A\': <class \'gluon.html.A\'>, \'ANY_OF\': <class \'gluon.validators.ANY_OF\'>, \'B\': <class \'gluon.html.B\'>, \'BEAUTIFY\': <class \'gluon.html.BEAUTIFY\'>, \'BODY\': <class \'gluon.html.BODY\'>, \'BR\': <class \'gluon.html.BR\'>, \'BUTTON\': <class \'gluon.html.BUTTON\'>, \'CAT\': <class \'gluon.html.CAT\'>, \'CENTER\': <class \'gluon.html.CENTER\'>, \'CLEANUP\': <class \'gluon.validators.CLEANUP\'>, ...}, layer=\'/home/user/Documents/web2py/applications/IMAGE_JOURNAL2/views/default/login.html\')'
p99
sS'func'
p100
S'restricted'
p101
sa(dp102
g73
S'/home/user/Documents/web2py/gluon/restricted.py'
p103
sg75
(dp104
S'builtincompile'
p105
S'<built-in function compile>'
p106
sS'code'
p107
S'r"response.write(\'<!DOCTYPE html>\\r\\n<html>\\r\\n<he...script>\\r\\n</body>\\r\\n</html>\\r\\n\', escape=False)"'
p108
sS'code.rstrip'
p109
S'<built-in method rstrip of str object>'
p110
sS').replace'
p111
g84
sS'layer'
p112
S"'/home/user/Documents/web2py/applications/IMAGE_JOURNAL2/views/default/login.html'"
p113
ssg85
I199
sg86
(dp114
I194
S''
sI195
S'def compile2(code, layer):'
p115
sI196
S'    """'
p116
sI197
S"    The +'\\n' is necessary else compile fails when code ends in a comment."
p117
sI198
S'    """'
p118
sI199
S"    return compile(code.rstrip().replace('\\r\\n', '\\n') + '\\n', layer, 'exec')"
p119
sI200
S''
sI201
S''
sI202
S"def restricted(code, environment=None, layer='Unknown'):"
p120
sI203
S'    """'
p121
ssg98
S'(code=r"response.write(\'<!DOCTYPE html>\\r\\n<html>\\r\\n<he...script>\\r\\n</body>\\r\\n</html>\\r\\n\', escape=False)", layer=\'/home/user/Documents/web2py/applications/IMAGE_JOURNAL2/views/default/login.html\')'
p122
sg100
S'compile2'
p123
sasS'pyver'
p124
S'Python 2.7.5+: /usr/bin/python (prefix: /usr)'
p125
sS'session'
p126
g68
(S's\x1a\x00\x00\x00<div><table></table></div>'
tRp127
sS'etype'
p128
S"<type 'exceptions.SyntaxError'>"
p129
sS'date'
p130
S'Wed Apr  9 21:40:51 2014'
p131
sS'response'
p132
g68
(S's\x86\x17\x00\x00<div><table><tr><td style="font-weight:bold;vertical-align:top;">body</td><td style="vertical-align:top;">:</td><td><div>&lt;cStringIO.StringO object at 0x7f7c8c306688&gt;</div></td></tr><tr><td style="font-weight:bold;vertical-align:top;">cookies</td><td style="vertical-align:top;">:</td><td><div><table><tr><td style="font-weight:bold;vertical-align:top;">session_id_image_journal2</td><td style="vertical-align:top;">:</td><td><div>127.0.0.1-fe1764d4-5347-4a81-b06c-712b23fcc9e8<table><tr><td style="font-weight:bold;vertical-align:top;">comment</td><td style="vertical-align:top;">:</td><td><div></div></td></tr><tr><td style="font-weight:bold;vertical-align:top;">domain</td><td style="vertical-align:top;">:</td><td><div></div></td></tr><tr><td style="font-weight:bold;vertical-align:top;">expires</td><td style="vertical-align:top;">:</td><td><div></div></td></tr><tr><td style="font-weight:bold;vertical-align:top;">httponly</td><td style="vertical-align:top;">:</td><td><div></div></td></tr><tr><td style="font-weight:bold;vertical-align:top;">max-age</td><td style="vertical-align:top;">:</td><td><div></div></td></tr><tr><td style="font-weight:bold;vertical-align:top;">path</td><td style="vertical-align:top;">:</td><td><div>/</div></td></tr><tr><td style="font-weight:bold;vertical-align:top;">secure</td><td style="vertical-align:top;">:</td><td><div></div></td></tr><tr><td style="font-weight:bold;vertical-align:top;">version</td><td style="vertical-align:top;">:</td><td><div></div></td></tr></table></div></td></tr></table></div></td></tr><tr><td style="font-weight:bold;vertical-align:top;">delimiters</td><td style="vertical-align:top;">:</td><td><div><table><tr><td><div>{{</div></td></tr><tr><td><div>}}</div></td></tr></table></div></td></tr><tr><td style="font-weight:bold;vertical-align:top;">files</td><td style="vertical-align:top;">:</td><td><div><table></table></div></td></tr><tr><td style="font-weight:bold;vertical-align:top;">flash</td><td style="vertical-align:top;">:</td><td><div></div></td></tr><tr><td style="font-weight:bold;vertical-align:top;">generic_patterns</td><td style="vertical-align:top;">:</td><td><div><table></table></div></td></tr><tr><td style="font-weight:bold;vertical-align:top;">headers</td><td style="vertical-align:top;">:</td><td><div><table><tr><td style="font-weight:bold;vertical-align:top;">X-Powered-By</td><td style="vertical-align:top;">:</td><td><div>web2py</div></td></tr></table></div></td></tr><tr><td style="font-weight:bold;vertical-align:top;">menu</td><td style="vertical-align:top;">:</td><td><div><table></table></div></td></tr><tr><td style="font-weight:bold;vertical-align:top;">meta</td><td style="vertical-align:top;">:</td><td><div><table></table></div></td></tr><tr><td style="font-weight:bold;vertical-align:top;">models_to_run</td><td style="vertical-align:top;">:</td><td><div><table><tr><td><div>^\\w+\\.py$</div></td></tr><tr><td><div>^default/\\w+\\.py$</div></td></tr><tr><td><div>^default/login/\\w+\\.py$</div></td></tr></table></div></td></tr><tr><td style="font-weight:bold;vertical-align:top;">postprocessing</td><td style="vertical-align:top;">:</td><td><div><table></table></div></td></tr><tr><td style="font-weight:bold;vertical-align:top;">session_client</td><td style="vertical-align:top;">:</td><td><div>127.0.0.1</div></td></tr><tr><td style="font-weight:bold;vertical-align:top;">session_cookie_compression_level</td><td style="vertical-align:top;">:</td><td><div>None</div></td></tr><tr><td style="font-weight:bold;vertical-align:top;">session_cookie_expires</td><td style="vertical-align:top;">:</td><td><div>None</div></td></tr><tr><td style="font-weight:bold;vertical-align:top;">session_cookie_key</td><td style="vertical-align:top;">:</td><td><div>None</div></td></tr><tr><td style="font-weight:bold;vertical-align:top;">session_data_name</td><td style="vertical-align:top;">:</td><td><div>session_data_image_journal2</div></td></tr><tr><td style="font-weight:bold;vertical-align:top;">session_file</td><td style="vertical-align:top;">:</td><td><div>&lt;open file &#x27;/home/user/Documents/web2py/applications/IMAGE_JOURNAL2/sessions/127.0.0.1-fe1764d4-5347-4a81-b06c-712b23fcc9e8&#x27;, mode &#x27;rb+&#x27; at 0x7f7c8c22fc00&gt;</div></td></tr><tr><td style="font-weight:bold;vertical-align:top;">session_filename</td><td style="vertical-align:top;">:</td><td><div>/home/user/Documents/web2py/applications/IMAGE_JOURNAL2/sessions/127.0.0.1-fe1764d4-5347-4a81-b06c-712b23fcc9e8</div></td></tr><tr><td style="font-weight:bold;vertical-align:top;">session_hash</td><td style="vertical-align:top;">:</td><td><div>f202a3bd6a8dd09c30fda16d6e6c4b0a</div></td></tr><tr><td style="font-weight:bold;vertical-align:top;">session_id</td><td style="vertical-align:top;">:</td><td><div>127.0.0.1-fe1764d4-5347-4a81-b06c-712b23fcc9e8</div></td></tr><tr><td style="font-weight:bold;vertical-align:top;">session_id_name</td><td style="vertical-align:top;">:</td><td><div>session_id_image_journal2</div></td></tr><tr><td style="font-weight:bold;vertical-align:top;">session_locked</td><td style="vertical-align:top;">:</td><td><div>True</div></td></tr><tr><td style="font-weight:bold;vertical-align:top;">session_masterapp</td><td style="vertical-align:top;">:</td><td><div>IMAGE_JOURNAL2</div></td></tr><tr><td style="font-weight:bold;vertical-align:top;">session_new</td><td style="vertical-align:top;">:</td><td><div>False</div></td></tr><tr><td style="font-weight:bold;vertical-align:top;">session_storage_type</td><td style="vertical-align:top;">:</td><td><div>file</div></td></tr><tr><td style="font-weight:bold;vertical-align:top;">status</td><td style="vertical-align:top;">:</td><td><div>200</div></td></tr><tr><td style="font-weight:bold;vertical-align:top;">title</td><td style="vertical-align:top;">:</td><td><div>please fill in your login details</div></td></tr><tr><td style="font-weight:bold;vertical-align:top;">view</td><td style="vertical-align:top;">:</td><td><div>default/login.html</div></td></tr></table></div>'
tRp133
sS'locals'
p134
(dp135
g4
S"'/home/user/Documents/web2py/applications/IMAGE_JOURNAL2/views/default/login.html'"
p136
sg6
S'r"response.write(\'<!DOCTYPE html>\\r\\n<html>\\r\\n<he...script>\\r\\n</body>\\r\\n</html>\\r\\n\', escape=False)"'
p137
sssS'traceback'
p138
S'Traceback (most recent call last):\n  File "/home/user/Documents/web2py/gluon/restricted.py", line 216, in restricted\n    ccode = compile2(code, layer)\n  File "/home/user/Documents/web2py/gluon/restricted.py", line 199, in compile2\n    return compile(code.rstrip().replace(\'\\r\\n\', \'\\n\') + \'\\n\', layer, \'exec\')\n  File "/home/user/Documents/web2py/applications/IMAGE_JOURNAL2/views/default/login.html", line 8\n    response.write(URL(\'static\',\'images/logomain.svg">\n                                                     ^\nSyntaxError: EOL while scanning string literal\n'
p139
s.