(dp1
S'output'
p2
S"<type 'exceptions.TypeError'> list indices must be integers, not Row"
p3
sS'layer'
p4
S'/home/user/Documents/web2py/applications/IMAGE_JOURNAL/views/default/timeline.html'
p5
sS'code'
p6
S'response.write(\'<!DOCTYPE html>\\r\\n<html>\\r\\n<head>\\r\\n\\t<title>My Timeline</title>\\r\\n\\t\\r\\n\\r\\n\\t<link href="\', escape=False)\nresponse.write(URL(\'static\', \'css/album.css\'))\nresponse.write(\'" rel="stylesheet" type="text/css" />\\r\\n\\t<link href="\', escape=False)\nresponse.write(URL(\'static\', \'css/normalize.css\'))\nresponse.write(\'" rel="stylesheet" type="text/css" />\\r\\n\\t<link href="\', escape=False)\nresponse.write(URL(\'static\', \'css/demo.css\'))\nresponse.write(\'" rel="stylesheet" type="text/css" />\\r\\n\\t<link href="\', escape=False)\nresponse.write(URL(\'static\', \'css/componentTM.css\'))\nresponse.write(\'" rel="stylesheet" type="text/css" />\\r\\n\\t<link href="\', escape=False)\nresponse.write(URL(\'static\', \'css/image.css\'))\nresponse.write(\'" rel="stylesheet" type="text/css" />\\r\\n\\t<link href="\', escape=False)\nresponse.write(URL(\'static\', \'css/timeline.css\'))\nresponse.write(\'" rel="stylesheet" type="text/css" />\\r\\n\\t<!--<script src="http://ajax.googleapis.com/ajax/libs/jquery/1.5.2/jquery.min.js"></script>-->\\r\\n</head>\\r\\n\\r\\n<body>\\r\\n\\t<div id="container">\\r\\n\\t\\t<header class="codrops-header">\\r\\n\\t\\t\\t\\t<img id ="main-logo">\\r\\n\\t\\t\\t\\t<h1>My Timeline</h1>\\t\\r\\n\\t\\t</header>\\r\\n\\t\\t\\r\\n\\t\\t<div class="main">\\r\\n\\t\\t\\t<div id="sb-search" class="sb-search">\\r\\n    \\t\\t\\t\\t<form>\\r\\n\\t\\t\\t\\t\\t<div id="formstyle">\\t\\r\\n\\t\\t\\t\\t\\t\\t<div id="nav">\\r\\n\\t\\t\\t\\t\\t\\t\\t\\r\\n\\t\\t\\t\\t\\t\\t\\t<label id="nav1hover">\\r\\n\\t\\t\\t\\t\\t\\t\\t\\t<input id="nav1" type="button" value="My &#xa; Albums" onclick = \\\'window.location="\', escape=False)\nresponse.write(URL(\'default\',\'my_albums\',args=[session_id]))\nresponse.write(\'"\\\'/>\\r\\n\\t\\t\\t\\t\\t\\t\\t\\r\\n\\t\\t\\t\\t\\t\\t\\t</label>\\r\\n\\t\\t\\t\\t\\t\\t\\t<label id="nav1hover">\\r\\n\\t\\t\\t\\t\\t\\t\\t\\t<input id="nav2" type="button" value="My &#xa; Timeline" onclick =\\\'window.location="\', escape=False)\nresponse.write(URL(\'default\',\'timeline\',args=[session_id]))\nresponse.write(\'"\\\'/>\\r\\n\\t\\t\\t\\t\\t\\t\\t</label>\\r\\n\\t\\t\\t\\t\\t\\t\\t<label id="nav1hover">\\r\\n\\t\\t\\t\\t\\t\\t\\t\\t<input id="nav3" type="button" value="Public &#xa; Albums" onclick = \\\'window.location="\', escape=False)\nresponse.write(URL(\'default\',\'public_albums\',args=[session_id]))\nresponse.write(\'"\\\'/>\\r\\n\\t\\t\\t\\t\\t\\t\\t\\t\\r\\n\\t\\t\\t\\t\\t\\t\\t</label>\\r\\n\\t\\t\\t\\t\\t\\t\\t<label id="nav1hover">\\r\\n\\t\\t\\t\\t\\t\\t\\t\\t<input id="nav4" type="button" value="Logout" onclick =\\\'window.location="\', escape=False)\nresponse.write(URL(\'default\',\'logout\',args=[session_id]))\nresponse.write(\'"\\\'/>\\r\\n\\t\\t\\t\\t\\t\\t\\t</label>\\r\\n\\t\\t\\t\\t\\t\\t</div>\\r\\n\\t\\t\\t\\t\\t</div>\\r\\n    \\t\\t\\t\\t</form>\\r\\n\\t\\t\\t</div>\\r\\n\\t\\t\\t<div id="block1">\\r\\n\\r\\n\\t\\t\\t\\r\\n\\t\\t\\t\\t\\r\\n\\t\\t\\t\\t<div id="timeline-background">\\r\\n\\t\\t\\t\\t\\t<div id="timeline-foreground" onclick = \\\'window.location="\', escape=False)\nresponse.write(URL(\'default\', \'display_image\', args=[session_id,i.album,i.image,i.owner,ids[j]]))\nresponse.write(\'"\\\'>\\r\\n\\t\\t\\t\\t\\r\\n\\t\\t\\t\\t\\t\\t<img id="img-timeline" src = "\', escape=False)\nresponse.write(URL(\'download\',args=[i.image]))\nresponse.write(\'" height = "450" width = "560">\\r\\n\\t\\t\\t\\t\\t\\t<div id="img-details">\\r\\n\\t\\t\\t\\t\\t\\t\\t<figcaption><h2>\\r\\n\\t\\t\\t\\t\\t\\t\\t<strong>\', escape=False)\nresponse.write(i.owner)\nresponse.write(\' </strong>\\r\\n\\t\\t\\t\\t\\t\\t\\t<br>\\r\\n\\t\\t\\t\\t\\t\\t\\t<strong>\', escape=False)\nresponse.write(i.album)\nresponse.write(\' </strong>\\r\\n\\t\\t\\t\\t\\t\\t\\t</h2>\\r\\n\\t\\t\\t\\t\\t\\t\\t</figcaption>\\r\\n\\t\\t\\t\\t\\t\\t</div>\\r\\n\\t\\t\\t\\t\\t</div>\\r\\n\\t\\t\\t\\t</div>\\r\\n\\r\\n\\t\\t\\t\\t\', escape=False)\nj += 1\nresponse.write(\'\\r\\n\\t\\t\\t\\t\', escape=False)\npass\nresponse.write(\'\\r\\n\\t\\t\\t\\r\\n\\t\\t\\t</div>\\r\\n\\t</div>\\r\\n\\t<div class="foot-image foot">\\r\\n\\t\\t\\t<div class="footnav">\\r\\n\\t\\t\\t\\t<ul>\\r\\n\\t\\t\\t\\t\\t<li><a href="#">About</a></li>\\r\\n\\t\\t\\t\\t\\t<li><a href="#">Contact</a></li>\\r\\n\\t\\t\\t\\t\\t<li><a href="#">Credits</a></li>\\r\\n\\t\\t\\t\\t</ul>\\r\\n\\t\\t\\t</div>\\r\\n\\t\\r\\n\\t\\t\\t<div class="social clear">\\r\\n\\t\\t\\t\\t<div class="follow">\\r\\n\\t\\t\\t\\t<ul>\\r\\n\\t\\t\\t\\t\\t<li class="youtube"><a href="#" >Youtube</a></li>\\r\\n\\t\\t\\t\\t\\t<li class="facebook"><a href="#">Facebook</a></li>\\r\\n\\t\\t\\t\\t\\t<li class="twitter"><a href="#" >Twitter</a></li>\\r\\n\\t\\t\\t\\t\\t<li class="google"><a href="#">Google Plus</a></li>\\r\\n\\t\\t\\t\\t</ul>\\r\\n\\t\\t\\t\\t</div>\\r\\n\\t\\t\\t</div>\\t\\r\\n\\t</div>\\r\\n</body>\\r\\n</html>\\r\\n\', escape=False)'
p7
sS'snapshot'
p8
(dp9
S'exception'
p10
(dp11
S'__hash__'
p12
S"<method-wrapper '__hash__' of exceptions.TypeError object>"
p13
sS'__setattr__'
p14
S"<method-wrapper '__setattr__' of exceptions.TypeError object>"
p15
sS'__reduce_ex__'
p16
S'<built-in method __reduce_ex__ of exceptions.TypeError object>'
p17
sS'__getslice__'
p18
S"<method-wrapper '__getslice__' of exceptions.TypeError object>"
p19
sS'__getitem__'
p20
S"<method-wrapper '__getitem__' of exceptions.TypeError object>"
p21
sS'__setstate__'
p22
S'<built-in method __setstate__ of exceptions.TypeError object>'
p23
sS'args'
p24
S"('list indices must be integers, not Row',)"
p25
sS'__reduce__'
p26
S'<built-in method __reduce__ of exceptions.TypeError object>'
p27
sS'__str__'
p28
S"<method-wrapper '__str__' of exceptions.TypeError object>"
p29
sS'__format__'
p30
S'<built-in method __format__ of exceptions.TypeError object>'
p31
sS'__getattribute__'
p32
S"<method-wrapper '__getattribute__' of exceptions.TypeError object>"
p33
sS'__class__'
p34
S"<type 'exceptions.TypeError'>"
p35
sS'__unicode__'
p36
S'<built-in method __unicode__ of exceptions.TypeError object>'
p37
sS'__delattr__'
p38
S"<method-wrapper '__delattr__' of exceptions.TypeError object>"
p39
sS'__subclasshook__'
p40
S'<built-in method __subclasshook__ of type object>'
p41
sS'__repr__'
p42
S"<method-wrapper '__repr__' of exceptions.TypeError object>"
p43
sS'__dict__'
p44
S'{}'
p45
sS'__sizeof__'
p46
S'<built-in method __sizeof__ of exceptions.TypeError object>'
p47
sS'__doc__'
p48
S"'Inappropriate argument type.'"
p49
sS'__init__'
p50
S"<method-wrapper '__init__' of exceptions.TypeError object>"
p51
sS'__new__'
p52
S'<built-in method __new__ of type object>'
p53
ssS'evalue'
p54
S'list indices must be integers, not Row'
p55
sS'request'
p56
cgluon.html
XML_unpickle
p57
(S'sIZ\x00\x00<div><table><tr><td style="font-weight:bold;vertical-align:top;">ajax</td><td style="vertical-align:top;">:</td><td><div>False</div></td></tr><tr><td style="font-weight:bold;vertical-align:top;">application</td><td style="vertical-align:top;">:</td><td><div>IMAGE_JOURNAL</div></td></tr><tr><td style="font-weight:bold;vertical-align:top;">args</td><td style="vertical-align:top;">:</td><td><div><table><tr><td><div>1891835</div></td></tr></table></div></td></tr><tr><td style="font-weight:bold;vertical-align:top;">cid</td><td style="vertical-align:top;">:</td><td><div>None</div></td></tr><tr><td style="font-weight:bold;vertical-align:top;">client</td><td style="vertical-align:top;">:</td><td><div>127.0.0.1</div></td></tr><tr><td style="font-weight:bold;vertical-align:top;">controller</td><td style="vertical-align:top;">:</td><td><div>default</div></td></tr><tr><td style="font-weight:bold;vertical-align:top;">cookies</td><td style="vertical-align:top;">:</td><td><div><table><tr><td style="font-weight:bold;vertical-align:top;">session_id_admin</td><td style="vertical-align:top;">:</td><td><div>127.0.0.1-890b4b7d-5132-411a-b5f9-c226ebd0ac20<table><tr><td style="font-weight:bold;vertical-align:top;">comment</td><td style="vertical-align:top;">:</td><td><div></div></td></tr><tr><td style="font-weight:bold;vertical-align:top;">domain</td><td style="vertical-align:top;">:</td><td><div></div></td></tr><tr><td style="font-weight:bold;vertical-align:top;">expires</td><td style="vertical-align:top;">:</td><td><div></div></td></tr><tr><td style="font-weight:bold;vertical-align:top;">httponly</td><td style="vertical-align:top;">:</td><td><div></div></td></tr><tr><td style="font-weight:bold;vertical-align:top;">max-age</td><td style="vertical-align:top;">:</td><td><div></div></td></tr><tr><td style="font-weight:bold;vertical-align:top;">path</td><td style="vertical-align:top;">:</td><td><div></div></td></tr><tr><td style="font-weight:bold;vertical-align:top;">secure</td><td style="vertical-align:top;">:</td><td><div></div></td></tr><tr><td style="font-weight:bold;vertical-align:top;">version</td><td style="vertical-align:top;">:</td><td><div></div></td></tr></table></div></td></tr><tr><td style="font-weight:bold;vertical-align:top;">session_id_image_journal</td><td style="vertical-align:top;">:</td><td><div>127.0.0.1-99bbd22f-0ca0-47cd-bb6b-11983170cfbd<table><tr><td style="font-weight:bold;vertical-align:top;">comment</td><td style="vertical-align:top;">:</td><td><div></div></td></tr><tr><td style="font-weight:bold;vertical-align:top;">domain</td><td style="vertical-align:top;">:</td><td><div></div></td></tr><tr><td style="font-weight:bold;vertical-align:top;">expires</td><td style="vertical-align:top;">:</td><td><div></div></td></tr><tr><td style="font-weight:bold;vertical-align:top;">httponly</td><td style="vertical-align:top;">:</td><td><div></div></td></tr><tr><td style="font-weight:bold;vertical-align:top;">max-age</td><td style="vertical-align:top;">:</td><td><div></div></td></tr><tr><td style="font-weight:bold;vertical-align:top;">path</td><td style="vertical-align:top;">:</td><td><div></div></td></tr><tr><td style="font-weight:bold;vertical-align:top;">secure</td><td style="vertical-align:top;">:</td><td><div></div></td></tr><tr><td style="font-weight:bold;vertical-align:top;">version</td><td style="vertical-align:top;">:</td><td><div></div></td></tr></table></div></td></tr><tr><td style="font-weight:bold;vertical-align:top;">session_id_welcome</td><td style="vertical-align:top;">:</td><td><div>127.0.0.1-6326e364-42a1-4081-80d2-f7de03f57de3<table><tr><td style="font-weight:bold;vertical-align:top;">comment</td><td style="vertical-align:top;">:</td><td><div></div></td></tr><tr><td style="font-weight:bold;vertical-align:top;">domain</td><td style="vertical-align:top;">:</td><td><div></div></td></tr><tr><td style="font-weight:bold;vertical-align:top;">expires</td><td style="vertical-align:top;">:</td><td><div></div></td></tr><tr><td style="font-weight:bold;vertical-align:top;">httponly</td><td style="vertical-align:top;">:</td><td><div></div></td></tr><tr><td style="font-weight:bold;vertical-align:top;">max-age</td><td style="vertical-align:top;">:</td><td><div></div></td></tr><tr><td style="font-weight:bold;vertical-align:top;">path</td><td style="vertical-align:top;">:</td><td><div></div></td></tr><tr><td style="font-weight:bold;vertical-align:top;">secure</td><td style="vertical-align:top;">:</td><td><div></div></td></tr><tr><td style="font-weight:bold;vertical-align:top;">version</td><td style="vertical-align:top;">:</td><td><div></div></td></tr></table></div></td></tr></table></div></td></tr><tr><td style="font-weight:bold;vertical-align:top;">env</td><td style="vertical-align:top;">:</td><td><div><table><tr><td style="font-weight:bold;vertical-align:top;">HTTP_ACCEPT</td><td style="vertical-align:top;">:</td><td><div>text/html,application/xhtml+xml,application/xml;q=0.9,*/*;q=0.8</div></td></tr><tr><td style="font-weight:bold;vertical-align:top;">HTTP_ACCEPT_ENCODING</td><td style="vertical-align:top;">:</td><td><div>gzip, deflate</div></td></tr><tr><td style="font-weight:bold;vertical-align:top;">HTTP_ACCEPT_LANGUAGE</td><td style="vertical-align:top;">:</td><td><div>en-US,en;q=0.5</div></td></tr><tr><td style="font-weight:bold;vertical-align:top;">HTTP_CACHE_CONTROL</td><td style="vertical-align:top;">:</td><td><div>max-age=0</div></td></tr><tr><td style="font-weight:bold;vertical-align:top;">HTTP_CONNECTION</td><td style="vertical-align:top;">:</td><td><div>keep-alive</div></td></tr><tr><td style="font-weight:bold;vertical-align:top;">HTTP_COOKIE</td><td style="vertical-align:top;">:</td><td><div>session_id_welcome=127.0.0.1-6326e364-42a1-4081-80d2-f7de03f57de3; session_id_admin=127.0.0.1-890b4b7d-5132-411a-b5f9-c226ebd0ac20; session_id_image_journal=127.0.0.1-99bbd22f-0ca0-47cd-bb6b-11983170cfbd</div></td></tr><tr><td style="font-weight:bold;vertical-align:top;">HTTP_HOST</td><td style="vertical-align:top;">:</td><td><div>127.0.0.1:8000</div></td></tr><tr><td style="font-weight:bold;vertical-align:top;">HTTP_USER_AGENT</td><td style="vertical-align:top;">:</td><td><div>Mozilla/5.0 (X11; Ubuntu; Linux x86_64; rv:28.0) Gecko/20100101 Firefox/28.0</div></td></tr><tr><td style="font-weight:bold;vertical-align:top;">PATH_INFO</td><td style="vertical-align:top;">:</td><td><div>/IMAGE_JOURNAL/default/timeline/1891835</div></td></tr><tr><td style="font-weight:bold;vertical-align:top;">QUERY_STRING</td><td style="vertical-align:top;">:</td><td><div></div></td></tr><tr><td style="font-weight:bold;vertical-align:top;">REMOTE_ADDR</td><td style="vertical-align:top;">:</td><td><div>127.0.0.1</div></td></tr><tr><td style="font-weight:bold;vertical-align:top;">REMOTE_PORT</td><td style="vertical-align:top;">:</td><td><div>57068</div></td></tr><tr><td style="font-weight:bold;vertical-align:top;">REQUEST_METHOD</td><td style="vertical-align:top;">:</td><td><div>GET</div></td></tr><tr><td style="font-weight:bold;vertical-align:top;">SCRIPT_NAME</td><td style="vertical-align:top;">:</td><td><div></div></td></tr><tr><td style="font-weight:bold;vertical-align:top;">SERVER_NAME</td><td style="vertical-align:top;">:</td><td><div>user-Inspiron-5521</div></td></tr><tr><td style="font-weight:bold;vertical-align:top;">SERVER_PORT</td><td style="vertical-align:top;">:</td><td><div>8000</div></td></tr><tr><td style="font-weight:bold;vertical-align:top;">SERVER_PROTOCOL</td><td style="vertical-align:top;">:</td><td><div>HTTP/1.1</div></td></tr><tr><td style="font-weight:bold;vertical-align:top;">SERVER_SOFTWARE</td><td style="vertical-align:top;">:</td><td><div>Rocket 1.2.6</div></td></tr><tr><td style="font-weight:bold;vertical-align:top;">app_folders</td><td style="vertical-align:top;">:</td><td><div>set([&#x27;/home/user/Documents/web2py/applications/welcome/&#x27;, &#x27;/home/user/Documents/web2py/applications/admin/&#x27;, &#x27;/home/user/Documents/web2py/applications/IMAGE_JOURNAL/&#x27;])</div></td></tr><tr><td style="font-weight:bold;vertical-align:top;">applications_parent</td><td style="vertical-align:top;">:</td><td><div>/home/user/Documents/web2py</div></td></tr><tr><td style="font-weight:bold;vertical-align:top;">cmd_args</td><td style="vertical-align:top;">:</td><td><div><table></table></div></td></tr><tr><td style="font-weight:bold;vertical-align:top;">cmd_options</td><td style="vertical-align:top;">:</td><td><div>&lt;Values at 0x2d8fb00: {&#x27;verbose&#x27;: False, &#x27;ip&#x27;: &#x27;127.0.0.1&#x27;, &#x27;debuglevel&#x27;: 30, &#x27;with_scheduler&#x27;: False, &#x27;ips&#x27;: [&#x27;127.0.1.1&#x27;], &#x27;shutdown_timeout&#x27;: 5, &#x27;taskbar&#x27;: False, &#x27;with_coverage&#x27;: False, &#x27;port&#x27;: 8000, &#x27;maxthreads&#x27;: None, &#x27;softcron&#x27;: False, &#x27;server_name&#x27;: &#x27;user-Inspiron-5521&#x27;, &#x27;bpython&#x27;: False, &#x27;nogui&#x27;: True, &#x27;pid_filename&#x27;: &#x27;httpserver.pid&#x27;, &#x27;extcron&#x27;: False, &#x27;runcron&#x27;: False, &#x27;run_system_tests&#x27;: False, &#x27;test&#x27;: None, &#x27;folder&#x27;: &#x27;/home/user/Documents/web2py&#x27;, &#x27;config&#x27;: &#x27;&#x27;, &#x27;minthreads&#x27;: None, &#x27;shell&#x27;: None, &#x27;run&#x27;: &#x27;&#x27;, &#x27;log_filename&#x27;: &#x27;httpserver.log&#x27;, &#x27;profiler_dir&#x27;: None, &#x27;args&#x27;: [&#x27;&#x27;], &#x27;socket_timeout&#x27;: 5, &#x27;ssl_ca_certificate&#x27;: None, &#x27;scheduler&#x27;: None, &#x27;interfaces&#x27;: None, &#x27;ssl_private_key&#x27;: &#x27;&#x27;, &#x27;scheduler_groups&#x27;: None, &#x27;password&#x27;: &#x27;hello&#x27;, &#x27;request_queue_size&#x27;: 5, &#x27;ssl_certificate&#x27;: &#x27;&#x27;, &#x27;cronjob&#x27;: False, &#x27;numthreads&#x27;: None, &#x27;quiet&#x27;: False, &#x27;import_models&#x27;: False, &#x27;timeout&#x27;: 10, &#x27;plain&#x27;: False, &#x27;nobanner&#x27;: False}&gt;</div></td></tr><tr><td style="font-weight:bold;vertical-align:top;">db_sessions</td><td style="vertical-align:top;">:</td><td><div>set([])</div></td></tr><tr><td style="font-weight:bold;vertical-align:top;">debugging</td><td style="vertical-align:top;">:</td><td><div>False</div></td></tr><tr><td style="font-weight:bold;vertical-align:top;">gluon_parent</td><td style="vertical-align:top;">:</td><td><div>/home/user/Documents/web2py</div></td></tr><tr><td style="font-weight:bold;vertical-align:top;">http_accept</td><td style="vertical-align:top;">:</td><td><div>text/html,application/xhtml+xml,application/xml;q=0.9,*/*;q=0.8</div></td></tr><tr><td style="font-weight:bold;vertical-align:top;">http_accept_encoding</td><td style="vertical-align:top;">:</td><td><div>gzip, deflate</div></td></tr><tr><td style="font-weight:bold;vertical-align:top;">http_accept_language</td><td style="vertical-align:top;">:</td><td><div>en-US,en;q=0.5</div></td></tr><tr><td style="font-weight:bold;vertical-align:top;">http_cache_control</td><td style="vertical-align:top;">:</td><td><div>max-age=0</div></td></tr><tr><td style="font-weight:bold;vertical-align:top;">http_connection</td><td style="vertical-align:top;">:</td><td><div>keep-alive</div></td></tr><tr><td style="font-weight:bold;vertical-align:top;">http_cookie</td><td style="vertical-align:top;">:</td><td><div>session_id_welcome=127.0.0.1-6326e364-42a1-4081-80d2-f7de03f57de3; session_id_admin=127.0.0.1-890b4b7d-5132-411a-b5f9-c226ebd0ac20; session_id_image_journal=127.0.0.1-99bbd22f-0ca0-47cd-bb6b-11983170cfbd</div></td></tr><tr><td style="font-weight:bold;vertical-align:top;">http_host</td><td style="vertical-align:top;">:</td><td><div>127.0.0.1:8000</div></td></tr><tr><td style="font-weight:bold;vertical-align:top;">http_user_agent</td><td style="vertical-align:top;">:</td><td><div>Mozilla/5.0 (X11; Ubuntu; Linux x86_64; rv:28.0) Gecko/20100101 Firefox/28.0</div></td></tr><tr><td style="font-weight:bold;vertical-align:top;">is_jython</td><td style="vertical-align:top;">:</td><td><div>False</div></td></tr><tr><td style="font-weight:bold;vertical-align:top;">is_pypy</td><td style="vertical-align:top;">:</td><td><div>False</div></td></tr><tr><td style="font-weight:bold;vertical-align:top;">is_source</td><td style="vertical-align:top;">:</td><td><div>True</div></td></tr><tr><td style="font-weight:bold;vertical-align:top;">local_hosts</td><td style="vertical-align:top;">:</td><td><div><table><tr><td><div>user-Inspiron-5521</div></td></tr><tr><td><div>::1</div></td></tr><tr><td><div>127.0.1.1</div></td></tr><tr><td><div>::ffff:127.0.0.1</div></td></tr><tr><td><div>127.0.0.1</div></td></tr></table></div></td></tr><tr><td style="font-weight:bold;vertical-align:top;">path_info</td><td style="vertical-align:top;">:</td><td><div>/IMAGE_JOURNAL/default/timeline/1891835</div></td></tr><tr><td style="font-weight:bold;vertical-align:top;">query_string</td><td style="vertical-align:top;">:</td><td><div></div></td></tr><tr><td style="font-weight:bold;vertical-align:top;">remote_addr</td><td style="vertical-align:top;">:</td><td><div>127.0.0.1</div></td></tr><tr><td style="font-weight:bold;vertical-align:top;">remote_port</td><td style="vertical-align:top;">:</td><td><div>57068</div></td></tr><tr><td style="font-weight:bold;vertical-align:top;">request_method</td><td style="vertical-align:top;">:</td><td><div>GET</div></td></tr><tr><td style="font-weight:bold;vertical-align:top;">request_uri</td><td style="vertical-align:top;">:</td><td><div>/IMAGE_JOURNAL/default/timeline/1891835</div></td></tr><tr><td style="font-weight:bold;vertical-align:top;">script_name</td><td style="vertical-align:top;">:</td><td><div></div></td></tr><tr><td style="font-weight:bold;vertical-align:top;">server_name</td><td style="vertical-align:top;">:</td><td><div>user-Inspiron-5521</div></td></tr><tr><td style="font-weight:bold;vertical-align:top;">server_port</td><td style="vertical-align:top;">:</td><td><div>8000</div></td></tr><tr><td style="font-weight:bold;vertical-align:top;">server_protocol</td><td style="vertical-align:top;">:</td><td><div>HTTP/1.1</div></td></tr><tr><td style="font-weight:bold;vertical-align:top;">server_software</td><td style="vertical-align:top;">:</td><td><div>Rocket 1.2.6</div></td></tr><tr><td style="font-weight:bold;vertical-align:top;">web2py_path</td><td style="vertical-align:top;">:</td><td><div>/home/user/Documents/web2py</div></td></tr><tr><td style="font-weight:bold;vertical-align:top;">web2py_version</td><td style="vertical-align:top;">:</td><td><div>2.9.4-stable+timestamp.2014.03.05.04.44.09</div></td></tr><tr><td style="font-weight:bold;vertical-align:top;">wsgi.errors</td><td style="vertical-align:top;">:</td><td><div>&lt;open file &#x27;&lt;stderr&gt;&#x27;, mode &#x27;w&#x27; at 0x7ff0dffd01e0&gt;</div></td></tr><tr><td style="font-weight:bold;vertical-align:top;">wsgi.file_wrapper</td><td style="vertical-align:top;">:</td><td><div>&lt;class wsgiref.util.FileWrapper at 0x2cd9bb0&gt;</div></td></tr><tr><td style="font-weight:bold;vertical-align:top;">wsgi.input</td><td style="vertical-align:top;">:</td><td><div>&lt;socket._fileobject object at 0x7ff0d04ba9d0&gt;</div></td></tr><tr><td style="font-weight:bold;vertical-align:top;">wsgi.multiprocess</td><td style="vertical-align:top;">:</td><td><div>False</div></td></tr><tr><td style="font-weight:bold;vertical-align:top;">wsgi.multithread</td><td style="vertical-align:top;">:</td><td><div>True</div></td></tr><tr><td style="font-weight:bold;vertical-align:top;">wsgi.run_once</td><td style="vertical-align:top;">:</td><td><div>False</div></td></tr><tr><td style="font-weight:bold;vertical-align:top;">wsgi.url_scheme</td><td style="vertical-align:top;">:</td><td><div>http</div></td></tr><tr><td style="font-weight:bold;vertical-align:top;">wsgi.version</td><td style="vertical-align:top;">:</td><td><div><table><tr><td><div>1</div></td></tr><tr><td><div>0</div></td></tr></table></div></td></tr><tr><td style="font-weight:bold;vertical-align:top;">wsgi_errors</td><td style="vertical-align:top;">:</td><td><div>&lt;open file &#x27;&lt;stderr&gt;&#x27;, mode &#x27;w&#x27; at 0x7ff0dffd01e0&gt;</div></td></tr><tr><td style="font-weight:bold;vertical-align:top;">wsgi_file_wrapper</td><td style="vertical-align:top;">:</td><td><div>&lt;class wsgiref.util.FileWrapper at 0x2cd9bb0&gt;</div></td></tr><tr><td style="font-weight:bold;vertical-align:top;">wsgi_input</td><td style="vertical-align:top;">:</td><td><div>&lt;socket._fileobject object at 0x7ff0d04ba9d0&gt;</div></td></tr><tr><td style="font-weight:bold;vertical-align:top;">wsgi_multiprocess</td><td style="vertical-align:top;">:</td><td><div>False</div></td></tr><tr><td style="font-weight:bold;vertical-align:top;">wsgi_multithread</td><td style="vertical-align:top;">:</td><td><div>True</div></td></tr><tr><td style="font-weight:bold;vertical-align:top;">wsgi_run_once</td><td style="vertical-align:top;">:</td><td><div>False</div></td></tr><tr><td style="font-weight:bold;vertical-align:top;">wsgi_url_scheme</td><td style="vertical-align:top;">:</td><td><div>http</div></td></tr><tr><td style="font-weight:bold;vertical-align:top;">wsgi_version</td><td style="vertical-align:top;">:</td><td><div><table><tr><td><div>1</div></td></tr><tr><td><div>0</div></td></tr></table></div></td></tr></table></div></td></tr><tr><td style="font-weight:bold;vertical-align:top;">extension</td><td style="vertical-align:top;">:</td><td><div>html</div></td></tr><tr><td style="font-weight:bold;vertical-align:top;">folder</td><td style="vertical-align:top;">:</td><td><div>/home/user/Documents/web2py/applications/IMAGE_JOURNAL/</div></td></tr><tr><td style="font-weight:bold;vertical-align:top;">function</td><td style="vertical-align:top;">:</td><td><div>timeline</div></td></tr><tr><td style="font-weight:bold;vertical-align:top;">global_settings</td><td style="vertical-align:top;">:</td><td><div><table><tr><td style="font-weight:bold;vertical-align:top;">app_folders</td><td style="vertical-align:top;">:</td><td><div>set([&#x27;/home/user/Documents/web2py/applications/welcome/&#x27;, &#x27;/home/user/Documents/web2py/applications/admin/&#x27;, &#x27;/home/user/Documents/web2py/applications/IMAGE_JOURNAL/&#x27;])</div></td></tr><tr><td style="font-weight:bold;vertical-align:top;">applications_parent</td><td style="vertical-align:top;">:</td><td><div>/home/user/Documents/web2py</div></td></tr><tr><td style="font-weight:bold;vertical-align:top;">cmd_args</td><td style="vertical-align:top;">:</td><td><div><table></table></div></td></tr><tr><td style="font-weight:bold;vertical-align:top;">cmd_options</td><td style="vertical-align:top;">:</td><td><div>&lt;Values at 0x2d8fb00: {&#x27;verbose&#x27;: False, &#x27;ip&#x27;: &#x27;127.0.0.1&#x27;, &#x27;debuglevel&#x27;: 30, &#x27;with_scheduler&#x27;: False, &#x27;ips&#x27;: [&#x27;127.0.1.1&#x27;], &#x27;shutdown_timeout&#x27;: 5, &#x27;taskbar&#x27;: False, &#x27;with_coverage&#x27;: False, &#x27;port&#x27;: 8000, &#x27;maxthreads&#x27;: None, &#x27;softcron&#x27;: False, &#x27;server_name&#x27;: &#x27;user-Inspiron-5521&#x27;, &#x27;bpython&#x27;: False, &#x27;nogui&#x27;: True, &#x27;pid_filename&#x27;: &#x27;httpserver.pid&#x27;, &#x27;extcron&#x27;: False, &#x27;runcron&#x27;: False, &#x27;run_system_tests&#x27;: False, &#x27;test&#x27;: None, &#x27;folder&#x27;: &#x27;/home/user/Documents/web2py&#x27;, &#x27;config&#x27;: &#x27;&#x27;, &#x27;minthreads&#x27;: None, &#x27;shell&#x27;: None, &#x27;run&#x27;: &#x27;&#x27;, &#x27;log_filename&#x27;: &#x27;httpserver.log&#x27;, &#x27;profiler_dir&#x27;: None, &#x27;args&#x27;: [&#x27;&#x27;], &#x27;socket_timeout&#x27;: 5, &#x27;ssl_ca_certificate&#x27;: None, &#x27;scheduler&#x27;: None, &#x27;interfaces&#x27;: None, &#x27;ssl_private_key&#x27;: &#x27;&#x27;, &#x27;scheduler_groups&#x27;: None, &#x27;password&#x27;: &#x27;hello&#x27;, &#x27;request_queue_size&#x27;: 5, &#x27;ssl_certificate&#x27;: &#x27;&#x27;, &#x27;cronjob&#x27;: False, &#x27;numthreads&#x27;: None, &#x27;quiet&#x27;: False, &#x27;import_models&#x27;: False, &#x27;timeout&#x27;: 10, &#x27;plain&#x27;: False, &#x27;nobanner&#x27;: False}&gt;</div></td></tr><tr><td style="font-weight:bold;vertical-align:top;">db_sessions</td><td style="vertical-align:top;">:</td><td><div>set([])</div></td></tr><tr><td style="font-weight:bold;vertical-align:top;">debugging</td><td style="vertical-align:top;">:</td><td><div>False</div></td></tr><tr><td style="font-weight:bold;vertical-align:top;">gluon_parent</td><td style="vertical-align:top;">:</td><td><div>/home/user/Documents/web2py</div></td></tr><tr><td style="font-weight:bold;vertical-align:top;">is_jython</td><td style="vertical-align:top;">:</td><td><div>False</div></td></tr><tr><td style="font-weight:bold;vertical-align:top;">is_pypy</td><td style="vertical-align:top;">:</td><td><div>False</div></td></tr><tr><td style="font-weight:bold;vertical-align:top;">is_source</td><td style="vertical-align:top;">:</td><td><div>True</div></td></tr><tr><td style="font-weight:bold;vertical-align:top;">local_hosts</td><td style="vertical-align:top;">:</td><td><div><table><tr><td><div>user-Inspiron-5521</div></td></tr><tr><td><div>::1</div></td></tr><tr><td><div>127.0.1.1</div></td></tr><tr><td><div>::ffff:127.0.0.1</div></td></tr><tr><td><div>127.0.0.1</div></td></tr></table></div></td></tr><tr><td style="font-weight:bold;vertical-align:top;">web2py_version</td><td style="vertical-align:top;">:</td><td><div>2.9.4-stable+timestamp.2014.03.05.04.44.09</div></td></tr></table></div></td></tr><tr><td style="font-weight:bold;vertical-align:top;">is_https</td><td style="vertical-align:top;">:</td><td><div>False</div></td></tr><tr><td style="font-weight:bold;vertical-align:top;">is_local</td><td style="vertical-align:top;">:</td><td><div>True</div></td></tr><tr><td style="font-weight:bold;vertical-align:top;">is_restful</td><td style="vertical-align:top;">:</td><td><div>False</div></td></tr><tr><td style="font-weight:bold;vertical-align:top;">now</td><td style="vertical-align:top;">:</td><td><div>datetime.datetime(2014, 4, 13, 0, 57, 27, 380664)</div></td></tr><tr><td style="font-weight:bold;vertical-align:top;">raw_args</td><td style="vertical-align:top;">:</td><td><div>1891835</div></td></tr><tr><td style="font-weight:bold;vertical-align:top;">raw_extension</td><td style="vertical-align:top;">:</td><td><div>None</div></td></tr><tr><td style="font-weight:bold;vertical-align:top;">url</td><td style="vertical-align:top;">:</td><td><div>/IMAGE_JOURNAL/default/timeline/1891835</div></td></tr><tr><td style="font-weight:bold;vertical-align:top;">utcnow</td><td style="vertical-align:top;">:</td><td><div>datetime.datetime(2014, 4, 12, 19, 27, 27, 380722)</div></td></tr><tr><td style="font-weight:bold;vertical-align:top;">uuid</td><td style="vertical-align:top;">:</td><td><div>IMAGE_JOURNAL/127.0.0.1.2014-04-13.00-57-27.1b871b10-dd90-45ba-8369-218e77294303</div></td></tr><tr><td style="font-weight:bold;vertical-align:top;">wsgi</td><td style="vertical-align:top;">:</td><td><div>&lt;gluon.main.LazyWSGI object at 0x7ff0d04c58d0&gt;</div></td></tr></table></div>'
tRp58
sS'frames'
p59
(lp60
(dp61
S'file'
p62
S'/home/user/Documents/web2py/gluon/restricted.py'
p63
sS'dump'
p64
(dp65
S'environment'
p66
S"{'A': <class 'gluon.html.A'>, 'ANY_OF': <class 'gluon.validators.ANY_OF'>, 'B': <class 'gluon.html.B'>, 'BEAUTIFY': <class 'gluon.html.BEAUTIFY'>, 'BODY': <class 'gluon.html.BODY'>, 'BR': <class 'gluon.html.BR'>, 'BUTTON': <class 'gluon.html.BUTTON'>, 'CAT': <class 'gluon.html.CAT'>, 'CENTER': <class 'gluon.html.CENTER'>, 'CLEANUP': <class 'gluon.validators.CLEANUP'>, ...}"
p67
sS'ccode'
p68
S'<code object <module> at 0x7ff0d4a937b0, file "/...AGE_JOURNAL/views/default/timeline.html", line 1>'
p69
ssS'lnum'
p70
I217
sS'lines'
p71
(dp72
I212
S'    try:'
p73
sI213
S'        if isinstance(code, types.CodeType):'
p74
sI214
S'            ccode = code'
p75
sI215
S'        else:'
p76
sI216
S'            ccode = compile2(code, layer)'
p77
sI217
S'        exec ccode in environment'
p78
sI218
S'    except HTTP:'
p79
sI219
S'        raise'
p80
sI220
S'    except RestrictedError:'
p81
sI221
S'        # do not encapsulate (obfuscate) the original RestrictedError'
p82
ssS'call'
p83
S'(code=r"response.write(\'<!DOCTYPE html>\\r\\n<html>\\r\\n<he...t</div>\\r\\n</body>\\r\\n</html>\\r\\n\', escape=False)", environment={\'A\': <class \'gluon.html.A\'>, \'ANY_OF\': <class \'gluon.validators.ANY_OF\'>, \'B\': <class \'gluon.html.B\'>, \'BEAUTIFY\': <class \'gluon.html.BEAUTIFY\'>, \'BODY\': <class \'gluon.html.BODY\'>, \'BR\': <class \'gluon.html.BR\'>, \'BUTTON\': <class \'gluon.html.BUTTON\'>, \'CAT\': <class \'gluon.html.CAT\'>, \'CENTER\': <class \'gluon.html.CENTER\'>, \'CLEANUP\': <class \'gluon.validators.CLEANUP\'>, ...}, layer=\'/home/user/Documents/web2py/applications/IMAGE_JOURNAL/views/default/timeline.html\')'
p84
sS'func'
p85
S'restricted'
p86
sa(dp87
g62
S'/home/user/Documents/web2py/applications/IMAGE_JOURNAL/views/default/timeline.html'
p88
sg64
(dp89
S'div'
p90
S'undefined'
p91
ssg70
I22
sg71
(dp92
I32
S'pass'
p93
sI13
S'response.write(\'" rel="stylesheet" type="text/css" />\\r\\n\\t<!--<script src="http://ajax.googleapis.com/ajax/libs/jquery/1.5.2/jquery.min.js"></script>-->\\r\\n</head>\\r\\n\\r\\n<body>\\r\\n\\t<div id="container">\\r\\n\\t\\t<header class="codrops-header">\\r\\n\\t\\t\\t\\t<img id ="main-logo">\\r\\n\\t\\t\\t\\t<h1>My Timeline</h1>\\t\\r\\n\\t\\t</header>\\r\\n\\t\\t\\r\\n\\t\\t<div class="main">\\r\\n\\t\\t\\t<div id="sb-search" class="sb-search">\\r\\n    \\t\\t\\t\\t<form>\\r\\n\\t\\t\\t\\t\\t<div id="formstyle">\\t\\r\\n\\t\\t\\t\\t\\t\\t<div id="nav">\\r\\n\\t\\t\\t\\t\\t\\t\\t\\r\\n\\t\\t\\t\\t\\t\\t\\t<label id="nav1hover">\\r\\n\\t\\t\\t\\t\\t\\t\\t\\t<input id="nav1" type="button" value="My &#xa; Albums" onclick = \\\'window.location="\', escape=False)'
p94
sI14
S"response.write(URL('default','my_albums',args=[session_id]))"
p95
sI15
S'response.write(\'"\\\'/>\\r\\n\\t\\t\\t\\t\\t\\t\\t\\r\\n\\t\\t\\t\\t\\t\\t\\t</label>\\r\\n\\t\\t\\t\\t\\t\\t\\t<label id="nav1hover">\\r\\n\\t\\t\\t\\t\\t\\t\\t\\t<input id="nav2" type="button" value="My &#xa; Timeline" onclick =\\\'window.location="\', escape=False)'
p96
sI16
S"response.write(URL('default','timeline',args=[session_id]))"
p97
sI17
S'response.write(\'"\\\'/>\\r\\n\\t\\t\\t\\t\\t\\t\\t</label>\\r\\n\\t\\t\\t\\t\\t\\t\\t<label id="nav1hover">\\r\\n\\t\\t\\t\\t\\t\\t\\t\\t<input id="nav3" type="button" value="Public &#xa; Albums" onclick = \\\'window.location="\', escape=False)'
p98
sI18
S"response.write(URL('default','public_albums',args=[session_id]))"
p99
sI19
S'response.write(\'"\\\'/>\\r\\n\\t\\t\\t\\t\\t\\t\\t\\t\\r\\n\\t\\t\\t\\t\\t\\t\\t</label>\\r\\n\\t\\t\\t\\t\\t\\t\\t<label id="nav1hover">\\r\\n\\t\\t\\t\\t\\t\\t\\t\\t<input id="nav4" type="button" value="Logout" onclick =\\\'window.location="\', escape=False)'
p100
sI20
S"response.write(URL('default','logout',args=[session_id]))"
p101
sI21
S'response.write(\'"\\\'/>\\r\\n\\t\\t\\t\\t\\t\\t\\t</label>\\r\\n\\t\\t\\t\\t\\t\\t</div>\\r\\n\\t\\t\\t\\t\\t</div>\\r\\n    \\t\\t\\t\\t</form>\\r\\n\\t\\t\\t</div>\\r\\n\\t\\t\\t<div id="block1">\\r\\n\\r\\n\\t\\t\\t\\r\\n\\t\\t\\t\\t\\r\\n\\t\\t\\t\\t<div id="timeline-background">\\r\\n\\t\\t\\t\\t\\t<div id="timeline-foreground" onclick = \\\'window.location="\', escape=False)'
p102
sI22
S"response.write(URL('default', 'display_image', args=[session_id,i.album,i.image,i.owner,ids[j]]))"
p103
sI23
S'response.write(\'"\\\'>\\r\\n\\t\\t\\t\\t\\r\\n\\t\\t\\t\\t\\t\\t<img id="img-timeline" src = "\', escape=False)'
p104
sI24
S"response.write(URL('download',args=[i.image]))"
p105
sI25
S'response.write(\'" height = "450" width = "560">\\r\\n\\t\\t\\t\\t\\t\\t<div id="img-details">\\r\\n\\t\\t\\t\\t\\t\\t\\t<figcaption><h2>\\r\\n\\t\\t\\t\\t\\t\\t\\t<strong>\', escape=False)'
p106
sI26
S'response.write(i.owner)'
p107
sI27
S"response.write(' </strong>\\r\\n\\t\\t\\t\\t\\t\\t\\t<br>\\r\\n\\t\\t\\t\\t\\t\\t\\t<strong>', escape=False)"
p108
sI28
S'response.write(i.album)'
p109
sI29
S"response.write(' </strong>\\r\\n\\t\\t\\t\\t\\t\\t\\t</h2>\\r\\n\\t\\t\\t\\t\\t\\t\\t</figcaption>\\r\\n\\t\\t\\t\\t\\t\\t</div>\\r\\n\\t\\t\\t\\t\\t</div>\\r\\n\\t\\t\\t\\t</div>\\r\\n\\r\\n\\t\\t\\t\\t', escape=False)"
p110
sI30
S'j += 1'
p111
sI31
S"response.write('\\r\\n\\t\\t\\t\\t', escape=False)"
p112
ssg83
S'()'
p113
sg85
S'<module>'
p114
sasS'pyver'
p115
S'Python 2.7.5+: /usr/bin/python (prefix: /usr)'
p116
sS'session'
p117
g57
(S's7\x01\x00\x00<div><table><tr><td style="font-weight:bold;vertical-align:top;">last_orderby</td><td style="vertical-align:top;">:</td><td><div>None</div></td></tr><tr><td style="font-weight:bold;vertical-align:top;">last_query</td><td style="vertical-align:top;">:</td><td><div>db.Albums.id&gt;0</div></td></tr></table></div>'
tRp118
sS'etype'
p119
S"<type 'exceptions.TypeError'>"
p120
sS'date'
p121
S'Sun Apr 13 00:57:27 2014'
p122
sS'response'
p123
g57
(S's\xe7\x16\x00\x00<div><table><tr><td style="font-weight:bold;vertical-align:top;">body</td><td style="vertical-align:top;">:</td><td><div>&lt;cStringIO.StringO object at 0x7ff0d46183b0&gt;</div></td></tr><tr><td style="font-weight:bold;vertical-align:top;">cookies</td><td style="vertical-align:top;">:</td><td><div><table><tr><td style="font-weight:bold;vertical-align:top;">session_id_image_journal</td><td style="vertical-align:top;">:</td><td><div>127.0.0.1-99bbd22f-0ca0-47cd-bb6b-11983170cfbd<table><tr><td style="font-weight:bold;vertical-align:top;">comment</td><td style="vertical-align:top;">:</td><td><div></div></td></tr><tr><td style="font-weight:bold;vertical-align:top;">domain</td><td style="vertical-align:top;">:</td><td><div></div></td></tr><tr><td style="font-weight:bold;vertical-align:top;">expires</td><td style="vertical-align:top;">:</td><td><div></div></td></tr><tr><td style="font-weight:bold;vertical-align:top;">httponly</td><td style="vertical-align:top;">:</td><td><div></div></td></tr><tr><td style="font-weight:bold;vertical-align:top;">max-age</td><td style="vertical-align:top;">:</td><td><div></div></td></tr><tr><td style="font-weight:bold;vertical-align:top;">path</td><td style="vertical-align:top;">:</td><td><div>/</div></td></tr><tr><td style="font-weight:bold;vertical-align:top;">secure</td><td style="vertical-align:top;">:</td><td><div></div></td></tr><tr><td style="font-weight:bold;vertical-align:top;">version</td><td style="vertical-align:top;">:</td><td><div></div></td></tr></table></div></td></tr></table></div></td></tr><tr><td style="font-weight:bold;vertical-align:top;">delimiters</td><td style="vertical-align:top;">:</td><td><div><table><tr><td><div>{{</div></td></tr><tr><td><div>}}</div></td></tr></table></div></td></tr><tr><td style="font-weight:bold;vertical-align:top;">files</td><td style="vertical-align:top;">:</td><td><div><table></table></div></td></tr><tr><td style="font-weight:bold;vertical-align:top;">flash</td><td style="vertical-align:top;">:</td><td><div></div></td></tr><tr><td style="font-weight:bold;vertical-align:top;">generic_patterns</td><td style="vertical-align:top;">:</td><td><div><table></table></div></td></tr><tr><td style="font-weight:bold;vertical-align:top;">headers</td><td style="vertical-align:top;">:</td><td><div><table><tr><td style="font-weight:bold;vertical-align:top;">X-Powered-By</td><td style="vertical-align:top;">:</td><td><div>web2py</div></td></tr></table></div></td></tr><tr><td style="font-weight:bold;vertical-align:top;">menu</td><td style="vertical-align:top;">:</td><td><div><table></table></div></td></tr><tr><td style="font-weight:bold;vertical-align:top;">meta</td><td style="vertical-align:top;">:</td><td><div><table></table></div></td></tr><tr><td style="font-weight:bold;vertical-align:top;">models_to_run</td><td style="vertical-align:top;">:</td><td><div><table><tr><td><div>^\\w+\\.py$</div></td></tr><tr><td><div>^default/\\w+\\.py$</div></td></tr><tr><td><div>^default/timeline/\\w+\\.py$</div></td></tr></table></div></td></tr><tr><td style="font-weight:bold;vertical-align:top;">postprocessing</td><td style="vertical-align:top;">:</td><td><div><table></table></div></td></tr><tr><td style="font-weight:bold;vertical-align:top;">session_client</td><td style="vertical-align:top;">:</td><td><div>127.0.0.1</div></td></tr><tr><td style="font-weight:bold;vertical-align:top;">session_cookie_compression_level</td><td style="vertical-align:top;">:</td><td><div>None</div></td></tr><tr><td style="font-weight:bold;vertical-align:top;">session_cookie_expires</td><td style="vertical-align:top;">:</td><td><div>None</div></td></tr><tr><td style="font-weight:bold;vertical-align:top;">session_cookie_key</td><td style="vertical-align:top;">:</td><td><div>None</div></td></tr><tr><td style="font-weight:bold;vertical-align:top;">session_data_name</td><td style="vertical-align:top;">:</td><td><div>session_data_image_journal</div></td></tr><tr><td style="font-weight:bold;vertical-align:top;">session_file</td><td style="vertical-align:top;">:</td><td><div>&lt;open file &#x27;/home/user/Documents/web2py/applications/IMAGE_JOURNAL/sessions/127.0.0.1-99bbd22f-0ca0-47cd-bb6b-11983170cfbd&#x27;, mode &#x27;rb+&#x27; at 0x7ff0d4ab6810&gt;</div></td></tr><tr><td style="font-weight:bold;vertical-align:top;">session_filename</td><td style="vertical-align:top;">:</td><td><div>/home/user/Documents/web2py/applications/IMAGE_JOURNAL/sessions/127.0.0.1-99bbd22f-0ca0-47cd-bb6b-11983170cfbd</div></td></tr><tr><td style="font-weight:bold;vertical-align:top;">session_hash</td><td style="vertical-align:top;">:</td><td><div>73e2cd02fae7159d30ae6ade3a0ab1b4</div></td></tr><tr><td style="font-weight:bold;vertical-align:top;">session_id</td><td style="vertical-align:top;">:</td><td><div>127.0.0.1-99bbd22f-0ca0-47cd-bb6b-11983170cfbd</div></td></tr><tr><td style="font-weight:bold;vertical-align:top;">session_id_name</td><td style="vertical-align:top;">:</td><td><div>session_id_image_journal</div></td></tr><tr><td style="font-weight:bold;vertical-align:top;">session_locked</td><td style="vertical-align:top;">:</td><td><div>True</div></td></tr><tr><td style="font-weight:bold;vertical-align:top;">session_masterapp</td><td style="vertical-align:top;">:</td><td><div>IMAGE_JOURNAL</div></td></tr><tr><td style="font-weight:bold;vertical-align:top;">session_new</td><td style="vertical-align:top;">:</td><td><div>False</div></td></tr><tr><td style="font-weight:bold;vertical-align:top;">session_storage_type</td><td style="vertical-align:top;">:</td><td><div>file</div></td></tr><tr><td style="font-weight:bold;vertical-align:top;">status</td><td style="vertical-align:top;">:</td><td><div>200</div></td></tr><tr><td style="font-weight:bold;vertical-align:top;">view</td><td style="vertical-align:top;">:</td><td><div>default/timeline.html</div></td></tr></table></div>'
tRp124
sS'locals'
p125
(dp126
S'OBJECT'
p127
S"<class 'gluon.html.OBJECT'>"
p128
sS'SQLDB'
p129
S"<class 'gluon.dal.DAL'>"
p130
sg117
S"<Storage {'_formkey[register/create]': ['6b44a66...34bbe', '48bd4b3f-6627-4a18-b56a-1eee80a37b0d']}>"
p131
sS'LINK'
p132
S"<class 'gluon.html.LINK'>"
p133
sS'BR'
p134
S"<class 'gluon.html.BR'>"
p135
sS'local_import'
p136
S'<function <lambda>>'
p137
sS'OPTGROUP'
p138
S"<class 'gluon.html.OPTGROUP'>"
p139
sS'PRE'
p140
S"<class 'gluon.html.PRE'>"
p141
sS'IS_INT_IN_RANGE'
p142
S"<class 'gluon.validators.IS_INT_IN_RANGE'>"
p143
sS'IS_LOWER'
p144
S"<class 'gluon.validators.IS_LOWER'>"
p145
sS'IS_STRONG'
p146
S"<class 'gluon.validators.IS_STRONG'>"
p147
sS'cache'
p148
S'<gluon.cache.Cache object>'
p149
sS'IS_IN_DB'
p150
S"<class 'gluon.validators.IS_IN_DB'>"
p151
sS'TAG'
p152
S'<gluon.html.__TAG__ object>'
p153
sS'SQLField'
p154
S"<class 'gluon.dal.Field'>"
p155
sS'BODY'
p156
S"<class 'gluon.html.BODY'>"
p157
sS'IS_DATE_IN_RANGE'
p158
S"<class 'gluon.validators.IS_DATE_IN_RANGE'>"
p159
sS'TH'
p160
S"<class 'gluon.html.TH'>"
p161
sS'URL'
p162
S'<function URL>'
p163
sS'__file__'
p164
S"'/home/user/Documents/web2py/applications/IMAGE_JOURNAL/views/default/timeline.html'"
p165
sS'db'
p166
S'<DAL uri="sqlite://webform.sqlite">'
p167
sS'P'
S"<class 'gluon.html.P'>"
p168
sS'TFOOT'
p169
S"<class 'gluon.html.TFOOT'>"
p170
sS'XHTML'
p171
S"<class 'gluon.html.XHTML'>"
p172
sS'ON'
p173
S'True'
p174
sS'OL'
p175
S"<class 'gluon.html.OL'>"
p176
sS'name'
p177
S"'kartikgupta0909'"
p178
sS'TEXTAREA'
p179
S"<class 'gluon.html.TEXTAREA'>"
p180
sS'MENU'
p181
S"<class 'gluon.html.MENU'>"
p182
sS'EM'
p183
S"<class 'gluon.html.EM'>"
p184
sS'CODE'
p185
S"<class 'gluon.html.CODE'>"
p186
sS'HTTP'
p187
S"<class 'gluon.http.HTTP'>"
p188
sS'HR'
p189
S"<class 'gluon.html.HR'>"
p190
sS'IS_DATETIME'
p191
S"<class 'gluon.validators.IS_DATETIME'>"
p192
sS'HEAD'
p193
S"<class 'gluon.html.HEAD'>"
p194
sS'LABEL'
p195
S"<class 'gluon.html.LABEL'>"
p196
sS'CLEANUP'
p197
S"<class 'gluon.validators.CLEANUP'>"
p198
sS'SELECT'
p199
S"<class 'gluon.html.SELECT'>"
p200
sS'CENTER'
p201
S"<class 'gluon.html.CENTER'>"
p202
sS'__builtins__'
p203
S"{'ArithmeticError': <type 'exceptions.ArithmeticError'>, 'AssertionError': <type 'exceptions.AssertionError'>, 'AttributeError': <type 'exceptions.AttributeError'>, 'BaseException': <type 'exceptions.BaseException'>, 'BufferError': <type 'exceptions.BufferError'>, 'BytesWarning': <type 'exceptions.BytesWarning'>, 'DeprecationWarning': <type 'exceptions.DeprecationWarning'>, 'EOFError': <type 'exceptions.EOFError'>, 'Ellipsis': Ellipsis, 'EnvironmentError': <type 'exceptions.EnvironmentError'>, ...}"
p204
sS'HTML'
p205
S"<class 'gluon.html.HTML'>"
p206
sS'SQLFORM'
p207
S"<class 'gluon.sqlhtml.SQLFORM'>"
p208
sS'T'
S'<gluon.languages.translator object>'
p209
sS'LOAD'
p210
S'<function LOAD>'
p211
sS'redirect'
p212
S'<function redirect>'
p213
sS'FIELDSET'
p214
S"<class 'gluon.html.FIELDSET'>"
p215
sS'IS_EQUAL_TO'
p216
S"<class 'gluon.validators.IS_EQUAL_TO'>"
p217
sS'embed64'
p218
S'<function embed64>'
p219
sS'IS_LIST_OF'
p220
S"<class 'gluon.validators.IS_LIST_OF'>"
p221
sS'__name__'
p222
S"'__restricted__'"
p223
sS'EMBED'
p224
S"<class 'gluon.html.EMBED'>"
p225
sS'r'
S'<Rows (1)>'
p226
sS'FORM'
p227
S"<class 'gluon.html.FORM'>"
p228
sS'H2'
p229
S"<class 'gluon.html.H2'>"
p230
sS'H3'
p231
S"<class 'gluon.html.H3'>"
p232
sS'BUTTON'
p233
S"<class 'gluon.html.BUTTON'>"
p234
sS'H1'
p235
S"<class 'gluon.html.H1'>"
p236
sS'H6'
p237
S"<class 'gluon.html.H6'>"
p238
sS'ids'
p239
S'[58L, 58L, 58L, 58L, 58L, 58L, 58L, 58L, 62L, 54L, 59L, 59L, 59L, 58L, 57L, 56L, 54L, 54L, 54L, 53L, ...]'
p240
sS'H4'
p241
S"<class 'gluon.html.H4'>"
p242
sS'H5'
p243
S"<class 'gluon.html.H5'>"
p244
sS'UL'
p245
S"<class 'gluon.html.UL'>"
p246
sS'IS_UPPER'
p247
S"<class 'gluon.validators.IS_UPPER'>"
p248
sS'xmlescape'
p249
S'<function xmlescape>'
p250
sS'IS_TIME'
p251
S"<class 'gluon.validators.IS_TIME'>"
p252
sS'OPTION'
p253
S"<class 'gluon.html.OPTION'>"
p254
sS'TITLE'
p255
S"<class 'gluon.html.TITLE'>"
p256
sS'CRYPT'
p257
S"<class 'gluon.validators.CRYPT'>"
p258
sS'IS_EMPTY_OR'
p259
S"<class 'gluon.validators.IS_EMPTY_OR'>"
p260
sS'MARKMIN'
p261
S"<class 'gluon.html.MARKMIN'>"
p262
sS'INPUT'
p263
S"<class 'gluon.html.INPUT'>"
p264
sS'STRONG'
p265
S"<class 'gluon.html.STRONG'>"
p266
sS'COL'
p267
S"<class 'gluon.html.COL'>"
p268
sS'rows'
p269
S'<Rows (23)>'
p270
sS'SCRIPT'
p271
S"<class 'gluon.html.SCRIPT'>"
p272
sS'TABLE'
p273
S"<class 'gluon.html.TABLE'>"
p274
sS'IS_IPV4'
p275
S"<class 'gluon.validators.IS_IPV4'>"
p276
sS'IS_LENGTH'
p277
S"<class 'gluon.validators.IS_LENGTH'>"
p278
sS'IS_IPV6'
p279
S"<class 'gluon.validators.IS_IPV6'>"
p280
sS'XML'
p281
S"<class 'gluon.html.XML'>"
p282
sS'B'
S"<class 'gluon.html.B'>"
p283
sS'IMG'
p284
S"<class 'gluon.html.IMG'>"
p285
sS'SQLTABLE'
p286
S"<class 'gluon.sqlhtml.SQLTABLE'>"
p287
sS'IS_MATCH'
p288
S"<class 'gluon.validators.IS_MATCH'>"
p289
sS'IS_ALPHANUMERIC'
p290
S"<class 'gluon.validators.IS_ALPHANUMERIC'>"
p291
sS'SPAN'
p292
S"<class 'gluon.html.SPAN'>"
p293
sS'IS_JSON'
p294
S"<class 'gluon.validators.IS_JSON'>"
p295
sS'IS_IPADDRESS'
p296
S"<class 'gluon.validators.IS_IPADDRESS'>"
p297
sS'j'
S"<Row {'owner': 'kartikgupta0909', 'default1': 'A..., 57L, 58L], 'album_name': 'kartik1', 'id': 49L}>"
p298
sS'IS_SLUG'
p299
S"<class 'gluon.validators.IS_SLUG'>"
p300
sS'BEAUTIFY'
p301
S"<class 'gluon.html.BEAUTIFY'>"
p302
sS'META'
p303
S"<class 'gluon.html.META'>"
p304
sS'IS_DATE'
p305
S"<class 'gluon.validators.IS_DATE'>"
p306
sS'IS_EMAIL'
p307
S"<class 'gluon.validators.IS_EMAIL'>"
p308
sS'IS_NOT_EMPTY'
p309
S"<class 'gluon.validators.IS_NOT_EMPTY'>"
p310
sS'IS_FLOAT_IN_RANGE'
p311
S"<class 'gluon.validators.IS_FLOAT_IN_RANGE'>"
p312
sS'TBODY'
p313
S"<class 'gluon.html.TBODY'>"
p314
sS'CAT'
p315
S"<class 'gluon.html.CAT'>"
p316
sS'Field'
p317
S"<class 'gluon.dal.Field'>"
p318
sS'IS_LIST_OF_EMAILS'
p319
S"<class 'gluon.validators.IS_LIST_OF_EMAILS'>"
p320
sS'DIV'
p321
S"<class 'gluon.html.DIV'>"
p322
sS'LEGEND'
p323
S"<class 'gluon.html.LEGEND'>"
p324
sS'COLGROUP'
p325
S"<class 'gluon.html.COLGROUP'>"
p326
sS'DAL'
p327
S"<class 'gluon.dal.DAL'>"
p328
sS'TT'
p329
S"<class 'gluon.html.TT'>"
p330
sS'TR'
p331
S"<class 'gluon.html.TR'>"
p332
sS'LI'
p333
S"<class 'gluon.html.LI'>"
p334
sS'IFRAME'
p335
S"<class 'gluon.html.IFRAME'>"
p336
sS'TD'
p337
S"<class 'gluon.html.TD'>"
p338
sS'IS_URL'
p339
S"<class 'gluon.validators.IS_URL'>"
p340
sS'A'
S"<class 'gluon.html.A'>"
p341
sS'STYLE'
p342
S"<class 'gluon.html.STYLE'>"
p343
sS'IS_DATETIME_IN_RANGE'
p344
S"<class 'gluon.validators.IS_DATETIME_IN_RANGE'>"
p345
sS'IS_IMAGE'
p346
S"<class 'gluon.validators.IS_IMAGE'>"
p347
sS'I'
S"<class 'gluon.html.I'>"
p348
sS'IS_NOT_IN_DB'
p349
S"<class 'gluon.validators.IS_NOT_IN_DB'>"
p350
sg123
S"<Storage {'body': <cStringIO.StringO object at 0...x7ff0d04b67d0>, 'view': 'default/timeline.html'}>"
p351
sS'THEAD'
p352
S"<class 'gluon.html.THEAD'>"
p353
sS'ANY_OF'
p354
S"<class 'gluon.validators.ANY_OF'>"
p355
sS'IS_NULL_OR'
p356
S"<class 'gluon.validators.IS_EMPTY_OR'>"
p357
sS'i'
S"<Row {'album': 'kartik1', 'image': 'Image.image....nts': [], 'owner': 'kartikgupta0909', 'id': 46L}>"
p358
sg56
S"<Storage {'_vars': <Storage {}>, 'function': 'ti...r/Documents/web2py/applications/IMAGE_JOURNAL/'}>"
p359
sS'IS_EXPR'
p360
S"<class 'gluon.validators.IS_EXPR'>"
p361
sS'session_id'
p362
S"'1891835'"
p363
sS'IS_IN_SET'
p364
S"<class 'gluon.validators.IS_IN_SET'>"
p365
sS'IS_UPLOAD_FILENAME'
p366
S"<class 'gluon.validators.IS_UPLOAD_FILENAME'>"
p367
sS'IS_DECIMAL_IN_RANGE'
p368
S"<class 'gluon.validators.IS_DECIMAL_IN_RANGE'>"
p369
sssS'traceback'
p370
S'Traceback (most recent call last):\n  File "/home/user/Documents/web2py/gluon/restricted.py", line 217, in restricted\n    exec ccode in environment\n  File "/home/user/Documents/web2py/applications/IMAGE_JOURNAL/views/default/timeline.html", line 22, in <module>\nTypeError: list indices must be integers, not Row\n'
p371
s.