(dp1
S'output'
p2
S"<type 'exceptions.NameError'> name 'selected' is not defined"
p3
sS'layer'
p4
S'/home/user/Documents/web2py/applications/IMAGE_JOURNAL/views/default/test.html'
p5
sS'code'
p6
S'response.write(\'<html>\\n<body>\\n<script>\\n\\n\\tjQuery("#searchinput").keyup(function(){\\n\\tajax(\\\'search_byalbum\\\', [\\\'searchinput\\\'], \\\'suggestions\\\')});\\n\\t\\n\\t</script>\\n\\nlist \', escape=False)\nresponse.write(selected)\nresponse.write(\'\\n\\n\\n<style>\\n\\t\\t\\t\\t\\t#suggestions { position: relative; }\\n\\t\\t\\t\\t\\t.suggestions { background: white; border: solid 1px #55A6C8; }\\n\\t\\t\\t\\t\\t.suggestions DIV { padding: 2px 4px 2px 4px; }\\n\\t\\t\\t\\t\\t</style>\\n\\n        \\t\\t\\t\\t<input id="searchinput" type="text" name="searchinput" placeholder="  Enter your search term ..." />\\n\\t\\t\\t\\t\\t\\t\\n\\t\\t\\t\\t\\t\\t<label id="searchover">\\t\\t\\t\\n\\t\\t\\t\\t\\t\\t\\t<input id="searchbutton" type="button" value="Search"/>\\n\\t\\t\\t\\t\\t\\t\\t<a href=""></a>\\n\\t\\t\\t\\t\\t\\t</label>\\n\\t\\t\\t\\t\\t<div style="position: absolute;" id="suggestions" class="suggestions"></div>\\n</body>\\n</html>\\n\', escape=False)'
p7
sS'snapshot'
p8
(dp9
S'exception'
p10
(dp11
S'__hash__'
p12
S"<method-wrapper '__hash__' of exceptions.NameError object>"
p13
sS'__setattr__'
p14
S"<method-wrapper '__setattr__' of exceptions.NameError object>"
p15
sS'__reduce_ex__'
p16
S'<built-in method __reduce_ex__ of exceptions.NameError object>'
p17
sS'__getslice__'
p18
S"<method-wrapper '__getslice__' of exceptions.NameError object>"
p19
sS'__getitem__'
p20
S"<method-wrapper '__getitem__' of exceptions.NameError object>"
p21
sS'__setstate__'
p22
S'<built-in method __setstate__ of exceptions.NameError object>'
p23
sS'args'
p24
S'("name \'selected\' is not defined",)'
p25
sS'__reduce__'
p26
S'<built-in method __reduce__ of exceptions.NameError object>'
p27
sS'__str__'
p28
S"<method-wrapper '__str__' of exceptions.NameError object>"
p29
sS'__format__'
p30
S'<built-in method __format__ of exceptions.NameError object>'
p31
sS'__getattribute__'
p32
S"<method-wrapper '__getattribute__' of exceptions.NameError object>"
p33
sS'__class__'
p34
S"<type 'exceptions.NameError'>"
p35
sS'__unicode__'
p36
S'<built-in method __unicode__ of exceptions.NameError object>'
p37
sS'__delattr__'
p38
S"<method-wrapper '__delattr__' of exceptions.NameError object>"
p39
sS'__subclasshook__'
p40
S'<built-in method __subclasshook__ of type object>'
p41
sS'__repr__'
p42
S"<method-wrapper '__repr__' of exceptions.NameError object>"
p43
sS'__dict__'
p44
S'{}'
p45
sS'__sizeof__'
p46
S'<built-in method __sizeof__ of exceptions.NameError object>'
p47
sS'__doc__'
p48
S"'Name not found globally.'"
p49
sS'__init__'
p50
S"<method-wrapper '__init__' of exceptions.NameError object>"
p51
sS'__new__'
p52
S'<built-in method __new__ of type object>'
p53
ssS'evalue'
p54
S"name 'selected' is not defined"
p55
sS'request'
p56
cgluon.html
XML_unpickle
p57
(S's\x0fY\x00\x00<div><table><tr><td style="font-weight:bold;vertical-align:top;">ajax</td><td style="vertical-align:top;">:</td><td><div>False</div></td></tr><tr><td style="font-weight:bold;vertical-align:top;">application</td><td style="vertical-align:top;">:</td><td><div>IMAGE_JOURNAL</div></td></tr><tr><td style="font-weight:bold;vertical-align:top;">args</td><td style="vertical-align:top;">:</td><td><div><table><tr><td><div>8649156</div></td></tr></table></div></td></tr><tr><td style="font-weight:bold;vertical-align:top;">cid</td><td style="vertical-align:top;">:</td><td><div>None</div></td></tr><tr><td style="font-weight:bold;vertical-align:top;">client</td><td style="vertical-align:top;">:</td><td><div>127.0.0.1</div></td></tr><tr><td style="font-weight:bold;vertical-align:top;">controller</td><td style="vertical-align:top;">:</td><td><div>default</div></td></tr><tr><td style="font-weight:bold;vertical-align:top;">cookies</td><td style="vertical-align:top;">:</td><td><div><table><tr><td style="font-weight:bold;vertical-align:top;">session_id_admin</td><td style="vertical-align:top;">:</td><td><div>127.0.0.1-adaf58f3-e6a2-4af4-a3a1-0ba085eccbc1<table><tr><td style="font-weight:bold;vertical-align:top;">comment</td><td style="vertical-align:top;">:</td><td><div></div></td></tr><tr><td style="font-weight:bold;vertical-align:top;">domain</td><td style="vertical-align:top;">:</td><td><div></div></td></tr><tr><td style="font-weight:bold;vertical-align:top;">expires</td><td style="vertical-align:top;">:</td><td><div></div></td></tr><tr><td style="font-weight:bold;vertical-align:top;">httponly</td><td style="vertical-align:top;">:</td><td><div></div></td></tr><tr><td style="font-weight:bold;vertical-align:top;">max-age</td><td style="vertical-align:top;">:</td><td><div></div></td></tr><tr><td style="font-weight:bold;vertical-align:top;">path</td><td style="vertical-align:top;">:</td><td><div></div></td></tr><tr><td style="font-weight:bold;vertical-align:top;">secure</td><td style="vertical-align:top;">:</td><td><div></div></td></tr><tr><td style="font-weight:bold;vertical-align:top;">version</td><td style="vertical-align:top;">:</td><td><div></div></td></tr></table></div></td></tr><tr><td style="font-weight:bold;vertical-align:top;">session_id_image_journal</td><td style="vertical-align:top;">:</td><td><div>127.0.0.1-19ae8106-8b1d-43c2-bf0d-658c1cf36c0f<table><tr><td style="font-weight:bold;vertical-align:top;">comment</td><td style="vertical-align:top;">:</td><td><div></div></td></tr><tr><td style="font-weight:bold;vertical-align:top;">domain</td><td style="vertical-align:top;">:</td><td><div></div></td></tr><tr><td style="font-weight:bold;vertical-align:top;">expires</td><td style="vertical-align:top;">:</td><td><div></div></td></tr><tr><td style="font-weight:bold;vertical-align:top;">httponly</td><td style="vertical-align:top;">:</td><td><div></div></td></tr><tr><td style="font-weight:bold;vertical-align:top;">max-age</td><td style="vertical-align:top;">:</td><td><div></div></td></tr><tr><td style="font-weight:bold;vertical-align:top;">path</td><td style="vertical-align:top;">:</td><td><div></div></td></tr><tr><td style="font-weight:bold;vertical-align:top;">secure</td><td style="vertical-align:top;">:</td><td><div></div></td></tr><tr><td style="font-weight:bold;vertical-align:top;">version</td><td style="vertical-align:top;">:</td><td><div></div></td></tr></table></div></td></tr><tr><td style="font-weight:bold;vertical-align:top;">session_id_welcome</td><td style="vertical-align:top;">:</td><td><div>127.0.0.1-bb18fa4d-ce78-4e3e-a717-a98a8423b35f<table><tr><td style="font-weight:bold;vertical-align:top;">comment</td><td style="vertical-align:top;">:</td><td><div></div></td></tr><tr><td style="font-weight:bold;vertical-align:top;">domain</td><td style="vertical-align:top;">:</td><td><div></div></td></tr><tr><td style="font-weight:bold;vertical-align:top;">expires</td><td style="vertical-align:top;">:</td><td><div></div></td></tr><tr><td style="font-weight:bold;vertical-align:top;">httponly</td><td style="vertical-align:top;">:</td><td><div></div></td></tr><tr><td style="font-weight:bold;vertical-align:top;">max-age</td><td style="vertical-align:top;">:</td><td><div></div></td></tr><tr><td style="font-weight:bold;vertical-align:top;">path</td><td style="vertical-align:top;">:</td><td><div></div></td></tr><tr><td style="font-weight:bold;vertical-align:top;">secure</td><td style="vertical-align:top;">:</td><td><div></div></td></tr><tr><td style="font-weight:bold;vertical-align:top;">version</td><td style="vertical-align:top;">:</td><td><div></div></td></tr></table></div></td></tr></table></div></td></tr><tr><td style="font-weight:bold;vertical-align:top;">env</td><td style="vertical-align:top;">:</td><td><div><table><tr><td style="font-weight:bold;vertical-align:top;">HTTP_ACCEPT</td><td style="vertical-align:top;">:</td><td><div>text/html,application/xhtml+xml,application/xml;q=0.9,*/*;q=0.8</div></td></tr><tr><td style="font-weight:bold;vertical-align:top;">HTTP_ACCEPT_ENCODING</td><td style="vertical-align:top;">:</td><td><div>gzip, deflate</div></td></tr><tr><td style="font-weight:bold;vertical-align:top;">HTTP_ACCEPT_LANGUAGE</td><td style="vertical-align:top;">:</td><td><div>en-US,en;q=0.5</div></td></tr><tr><td style="font-weight:bold;vertical-align:top;">HTTP_CONNECTION</td><td style="vertical-align:top;">:</td><td><div>keep-alive</div></td></tr><tr><td style="font-weight:bold;vertical-align:top;">HTTP_COOKIE</td><td style="vertical-align:top;">:</td><td><div>session_id_welcome=127.0.0.1-bb18fa4d-ce78-4e3e-a717-a98a8423b35f; session_id_admin=127.0.0.1-adaf58f3-e6a2-4af4-a3a1-0ba085eccbc1; session_id_image_journal=127.0.0.1-19ae8106-8b1d-43c2-bf0d-658c1cf36c0f</div></td></tr><tr><td style="font-weight:bold;vertical-align:top;">HTTP_HOST</td><td style="vertical-align:top;">:</td><td><div>127.0.0.1:8000</div></td></tr><tr><td style="font-weight:bold;vertical-align:top;">HTTP_USER_AGENT</td><td style="vertical-align:top;">:</td><td><div>Mozilla/5.0 (X11; Ubuntu; Linux x86_64; rv:28.0) Gecko/20100101 Firefox/28.0</div></td></tr><tr><td style="font-weight:bold;vertical-align:top;">PATH_INFO</td><td style="vertical-align:top;">:</td><td><div>/IMAGE_JOURNAL/default/test/8649156</div></td></tr><tr><td style="font-weight:bold;vertical-align:top;">QUERY_STRING</td><td style="vertical-align:top;">:</td><td><div></div></td></tr><tr><td style="font-weight:bold;vertical-align:top;">REMOTE_ADDR</td><td style="vertical-align:top;">:</td><td><div>127.0.0.1</div></td></tr><tr><td style="font-weight:bold;vertical-align:top;">REMOTE_PORT</td><td style="vertical-align:top;">:</td><td><div>60521</div></td></tr><tr><td style="font-weight:bold;vertical-align:top;">REQUEST_METHOD</td><td style="vertical-align:top;">:</td><td><div>GET</div></td></tr><tr><td style="font-weight:bold;vertical-align:top;">SCRIPT_NAME</td><td style="vertical-align:top;">:</td><td><div></div></td></tr><tr><td style="font-weight:bold;vertical-align:top;">SERVER_NAME</td><td style="vertical-align:top;">:</td><td><div>user-Inspiron-5521</div></td></tr><tr><td style="font-weight:bold;vertical-align:top;">SERVER_PORT</td><td style="vertical-align:top;">:</td><td><div>8000</div></td></tr><tr><td style="font-weight:bold;vertical-align:top;">SERVER_PROTOCOL</td><td style="vertical-align:top;">:</td><td><div>HTTP/1.1</div></td></tr><tr><td style="font-weight:bold;vertical-align:top;">SERVER_SOFTWARE</td><td style="vertical-align:top;">:</td><td><div>Rocket 1.2.6</div></td></tr><tr><td style="font-weight:bold;vertical-align:top;">app_folders</td><td style="vertical-align:top;">:</td><td><div>set([&#x27;/home/user/Documents/web2py/applications/welcome/&#x27;, &#x27;/home/user/Documents/web2py/applications/admin/&#x27;, &#x27;/home/user/Documents/web2py/applications/IMAGE_JOURNAL/&#x27;])</div></td></tr><tr><td style="font-weight:bold;vertical-align:top;">applications_parent</td><td style="vertical-align:top;">:</td><td><div>/home/user/Documents/web2py</div></td></tr><tr><td style="font-weight:bold;vertical-align:top;">cmd_args</td><td style="vertical-align:top;">:</td><td><div><table></table></div></td></tr><tr><td style="font-weight:bold;vertical-align:top;">cmd_options</td><td style="vertical-align:top;">:</td><td><div>&lt;Values at 0x1923b48: {&#x27;verbose&#x27;: False, &#x27;ip&#x27;: &#x27;127.0.0.1&#x27;, &#x27;debuglevel&#x27;: 30, &#x27;with_scheduler&#x27;: False, &#x27;ips&#x27;: [&#x27;127.0.1.1&#x27;], &#x27;shutdown_timeout&#x27;: 5, &#x27;taskbar&#x27;: False, &#x27;with_coverage&#x27;: False, &#x27;port&#x27;: 8000, &#x27;maxthreads&#x27;: None, &#x27;softcron&#x27;: False, &#x27;server_name&#x27;: &#x27;user-Inspiron-5521&#x27;, &#x27;bpython&#x27;: False, &#x27;nogui&#x27;: False, &#x27;pid_filename&#x27;: &#x27;httpserver.pid&#x27;, &#x27;extcron&#x27;: False, &#x27;runcron&#x27;: False, &#x27;run_system_tests&#x27;: False, &#x27;test&#x27;: None, &#x27;folder&#x27;: &#x27;/home/user/Documents/web2py&#x27;, &#x27;config&#x27;: &#x27;&#x27;, &#x27;minthreads&#x27;: None, &#x27;shell&#x27;: None, &#x27;run&#x27;: &#x27;&#x27;, &#x27;log_filename&#x27;: &#x27;httpserver.log&#x27;, &#x27;profiler_dir&#x27;: None, &#x27;args&#x27;: [&#x27;&#x27;], &#x27;socket_timeout&#x27;: 5, &#x27;ssl_ca_certificate&#x27;: None, &#x27;scheduler&#x27;: None, &#x27;interfaces&#x27;: None, &#x27;ssl_private_key&#x27;: &#x27;&#x27;, &#x27;scheduler_groups&#x27;: None, &#x27;password&#x27;: &#x27;hello&#x27;, &#x27;request_queue_size&#x27;: 5, &#x27;ssl_certificate&#x27;: &#x27;&#x27;, &#x27;cronjob&#x27;: False, &#x27;numthreads&#x27;: None, &#x27;quiet&#x27;: False, &#x27;import_models&#x27;: False, &#x27;timeout&#x27;: 10, &#x27;plain&#x27;: False, &#x27;nobanner&#x27;: False}&gt;</div></td></tr><tr><td style="font-weight:bold;vertical-align:top;">db_sessions</td><td style="vertical-align:top;">:</td><td><div>set([])</div></td></tr><tr><td style="font-weight:bold;vertical-align:top;">debugging</td><td style="vertical-align:top;">:</td><td><div>False</div></td></tr><tr><td style="font-weight:bold;vertical-align:top;">gluon_parent</td><td style="vertical-align:top;">:</td><td><div>/home/user/Documents/web2py</div></td></tr><tr><td style="font-weight:bold;vertical-align:top;">http_accept</td><td style="vertical-align:top;">:</td><td><div>text/html,application/xhtml+xml,application/xml;q=0.9,*/*;q=0.8</div></td></tr><tr><td style="font-weight:bold;vertical-align:top;">http_accept_encoding</td><td style="vertical-align:top;">:</td><td><div>gzip, deflate</div></td></tr><tr><td style="font-weight:bold;vertical-align:top;">http_accept_language</td><td style="vertical-align:top;">:</td><td><div>en-US,en;q=0.5</div></td></tr><tr><td style="font-weight:bold;vertical-align:top;">http_connection</td><td style="vertical-align:top;">:</td><td><div>keep-alive</div></td></tr><tr><td style="font-weight:bold;vertical-align:top;">http_cookie</td><td style="vertical-align:top;">:</td><td><div>session_id_welcome=127.0.0.1-bb18fa4d-ce78-4e3e-a717-a98a8423b35f; session_id_admin=127.0.0.1-adaf58f3-e6a2-4af4-a3a1-0ba085eccbc1; session_id_image_journal=127.0.0.1-19ae8106-8b1d-43c2-bf0d-658c1cf36c0f</div></td></tr><tr><td style="font-weight:bold;vertical-align:top;">http_host</td><td style="vertical-align:top;">:</td><td><div>127.0.0.1:8000</div></td></tr><tr><td style="font-weight:bold;vertical-align:top;">http_user_agent</td><td style="vertical-align:top;">:</td><td><div>Mozilla/5.0 (X11; Ubuntu; Linux x86_64; rv:28.0) Gecko/20100101 Firefox/28.0</div></td></tr><tr><td style="font-weight:bold;vertical-align:top;">is_jython</td><td style="vertical-align:top;">:</td><td><div>False</div></td></tr><tr><td style="font-weight:bold;vertical-align:top;">is_pypy</td><td style="vertical-align:top;">:</td><td><div>False</div></td></tr><tr><td style="font-weight:bold;vertical-align:top;">is_source</td><td style="vertical-align:top;">:</td><td><div>True</div></td></tr><tr><td style="font-weight:bold;vertical-align:top;">local_hosts</td><td style="vertical-align:top;">:</td><td><div><table><tr><td><div>user-Inspiron-5521</div></td></tr><tr><td><div>::1</div></td></tr><tr><td><div>127.0.1.1</div></td></tr><tr><td><div>::ffff:127.0.0.1</div></td></tr><tr><td><div>127.0.0.1</div></td></tr></table></div></td></tr><tr><td style="font-weight:bold;vertical-align:top;">path_info</td><td style="vertical-align:top;">:</td><td><div>/IMAGE_JOURNAL/default/test/8649156</div></td></tr><tr><td style="font-weight:bold;vertical-align:top;">query_string</td><td style="vertical-align:top;">:</td><td><div></div></td></tr><tr><td style="font-weight:bold;vertical-align:top;">remote_addr</td><td style="vertical-align:top;">:</td><td><div>127.0.0.1</div></td></tr><tr><td style="font-weight:bold;vertical-align:top;">remote_port</td><td style="vertical-align:top;">:</td><td><div>60521</div></td></tr><tr><td style="font-weight:bold;vertical-align:top;">request_method</td><td style="vertical-align:top;">:</td><td><div>GET</div></td></tr><tr><td style="font-weight:bold;vertical-align:top;">request_uri</td><td style="vertical-align:top;">:</td><td><div>/IMAGE_JOURNAL/default/test/8649156</div></td></tr><tr><td style="font-weight:bold;vertical-align:top;">script_name</td><td style="vertical-align:top;">:</td><td><div></div></td></tr><tr><td style="font-weight:bold;vertical-align:top;">server_name</td><td style="vertical-align:top;">:</td><td><div>user-Inspiron-5521</div></td></tr><tr><td style="font-weight:bold;vertical-align:top;">server_port</td><td style="vertical-align:top;">:</td><td><div>8000</div></td></tr><tr><td style="font-weight:bold;vertical-align:top;">server_protocol</td><td style="vertical-align:top;">:</td><td><div>HTTP/1.1</div></td></tr><tr><td style="font-weight:bold;vertical-align:top;">server_software</td><td style="vertical-align:top;">:</td><td><div>Rocket 1.2.6</div></td></tr><tr><td style="font-weight:bold;vertical-align:top;">web2py_path</td><td style="vertical-align:top;">:</td><td><div>/home/user/Documents/web2py</div></td></tr><tr><td style="font-weight:bold;vertical-align:top;">web2py_version</td><td style="vertical-align:top;">:</td><td><div>2.9.4-stable+timestamp.2014.03.05.04.44.09</div></td></tr><tr><td style="font-weight:bold;vertical-align:top;">wsgi.errors</td><td style="vertical-align:top;">:</td><td><div>&lt;open file &#x27;&lt;stderr&gt;&#x27;, mode &#x27;w&#x27; at 0x7fb3dc8eb1e0&gt;</div></td></tr><tr><td style="font-weight:bold;vertical-align:top;">wsgi.file_wrapper</td><td style="vertical-align:top;">:</td><td><div>&lt;class wsgiref.util.FileWrapper at 0x1870bb0&gt;</div></td></tr><tr><td style="font-weight:bold;vertical-align:top;">wsgi.input</td><td style="vertical-align:top;">:</td><td><div>&lt;socket._fileobject object at 0x7fb3b0588650&gt;</div></td></tr><tr><td style="font-weight:bold;vertical-align:top;">wsgi.multiprocess</td><td style="vertical-align:top;">:</td><td><div>False</div></td></tr><tr><td style="font-weight:bold;vertical-align:top;">wsgi.multithread</td><td style="vertical-align:top;">:</td><td><div>True</div></td></tr><tr><td style="font-weight:bold;vertical-align:top;">wsgi.run_once</td><td style="vertical-align:top;">:</td><td><div>False</div></td></tr><tr><td style="font-weight:bold;vertical-align:top;">wsgi.url_scheme</td><td style="vertical-align:top;">:</td><td><div>http</div></td></tr><tr><td style="font-weight:bold;vertical-align:top;">wsgi.version</td><td style="vertical-align:top;">:</td><td><div><table><tr><td><div>1</div></td></tr><tr><td><div>0</div></td></tr></table></div></td></tr><tr><td style="font-weight:bold;vertical-align:top;">wsgi_errors</td><td style="vertical-align:top;">:</td><td><div>&lt;open file &#x27;&lt;stderr&gt;&#x27;, mode &#x27;w&#x27; at 0x7fb3dc8eb1e0&gt;</div></td></tr><tr><td style="font-weight:bold;vertical-align:top;">wsgi_file_wrapper</td><td style="vertical-align:top;">:</td><td><div>&lt;class wsgiref.util.FileWrapper at 0x1870bb0&gt;</div></td></tr><tr><td style="font-weight:bold;vertical-align:top;">wsgi_input</td><td style="vertical-align:top;">:</td><td><div>&lt;socket._fileobject object at 0x7fb3b0588650&gt;</div></td></tr><tr><td style="font-weight:bold;vertical-align:top;">wsgi_multiprocess</td><td style="vertical-align:top;">:</td><td><div>False</div></td></tr><tr><td style="font-weight:bold;vertical-align:top;">wsgi_multithread</td><td style="vertical-align:top;">:</td><td><div>True</div></td></tr><tr><td style="font-weight:bold;vertical-align:top;">wsgi_run_once</td><td style="vertical-align:top;">:</td><td><div>False</div></td></tr><tr><td style="font-weight:bold;vertical-align:top;">wsgi_url_scheme</td><td style="vertical-align:top;">:</td><td><div>http</div></td></tr><tr><td style="font-weight:bold;vertical-align:top;">wsgi_version</td><td style="vertical-align:top;">:</td><td><div><table><tr><td><div>1</div></td></tr><tr><td><div>0</div></td></tr></table></div></td></tr></table></div></td></tr><tr><td style="font-weight:bold;vertical-align:top;">extension</td><td style="vertical-align:top;">:</td><td><div>html</div></td></tr><tr><td style="font-weight:bold;vertical-align:top;">folder</td><td style="vertical-align:top;">:</td><td><div>/home/user/Documents/web2py/applications/IMAGE_JOURNAL/</div></td></tr><tr><td style="font-weight:bold;vertical-align:top;">function</td><td style="vertical-align:top;">:</td><td><div>test</div></td></tr><tr><td style="font-weight:bold;vertical-align:top;">global_settings</td><td style="vertical-align:top;">:</td><td><div><table><tr><td style="font-weight:bold;vertical-align:top;">app_folders</td><td style="vertical-align:top;">:</td><td><div>set([&#x27;/home/user/Documents/web2py/applications/welcome/&#x27;, &#x27;/home/user/Documents/web2py/applications/admin/&#x27;, &#x27;/home/user/Documents/web2py/applications/IMAGE_JOURNAL/&#x27;])</div></td></tr><tr><td style="font-weight:bold;vertical-align:top;">applications_parent</td><td style="vertical-align:top;">:</td><td><div>/home/user/Documents/web2py</div></td></tr><tr><td style="font-weight:bold;vertical-align:top;">cmd_args</td><td style="vertical-align:top;">:</td><td><div><table></table></div></td></tr><tr><td style="font-weight:bold;vertical-align:top;">cmd_options</td><td style="vertical-align:top;">:</td><td><div>&lt;Values at 0x1923b48: {&#x27;verbose&#x27;: False, &#x27;ip&#x27;: &#x27;127.0.0.1&#x27;, &#x27;debuglevel&#x27;: 30, &#x27;with_scheduler&#x27;: False, &#x27;ips&#x27;: [&#x27;127.0.1.1&#x27;], &#x27;shutdown_timeout&#x27;: 5, &#x27;taskbar&#x27;: False, &#x27;with_coverage&#x27;: False, &#x27;port&#x27;: 8000, &#x27;maxthreads&#x27;: None, &#x27;softcron&#x27;: False, &#x27;server_name&#x27;: &#x27;user-Inspiron-5521&#x27;, &#x27;bpython&#x27;: False, &#x27;nogui&#x27;: False, &#x27;pid_filename&#x27;: &#x27;httpserver.pid&#x27;, &#x27;extcron&#x27;: False, &#x27;runcron&#x27;: False, &#x27;run_system_tests&#x27;: False, &#x27;test&#x27;: None, &#x27;folder&#x27;: &#x27;/home/user/Documents/web2py&#x27;, &#x27;config&#x27;: &#x27;&#x27;, &#x27;minthreads&#x27;: None, &#x27;shell&#x27;: None, &#x27;run&#x27;: &#x27;&#x27;, &#x27;log_filename&#x27;: &#x27;httpserver.log&#x27;, &#x27;profiler_dir&#x27;: None, &#x27;args&#x27;: [&#x27;&#x27;], &#x27;socket_timeout&#x27;: 5, &#x27;ssl_ca_certificate&#x27;: None, &#x27;scheduler&#x27;: None, &#x27;interfaces&#x27;: None, &#x27;ssl_private_key&#x27;: &#x27;&#x27;, &#x27;scheduler_groups&#x27;: None, &#x27;password&#x27;: &#x27;hello&#x27;, &#x27;request_queue_size&#x27;: 5, &#x27;ssl_certificate&#x27;: &#x27;&#x27;, &#x27;cronjob&#x27;: False, &#x27;numthreads&#x27;: None, &#x27;quiet&#x27;: False, &#x27;import_models&#x27;: False, &#x27;timeout&#x27;: 10, &#x27;plain&#x27;: False, &#x27;nobanner&#x27;: False}&gt;</div></td></tr><tr><td style="font-weight:bold;vertical-align:top;">db_sessions</td><td style="vertical-align:top;">:</td><td><div>set([])</div></td></tr><tr><td style="font-weight:bold;vertical-align:top;">debugging</td><td style="vertical-align:top;">:</td><td><div>False</div></td></tr><tr><td style="font-weight:bold;vertical-align:top;">gluon_parent</td><td style="vertical-align:top;">:</td><td><div>/home/user/Documents/web2py</div></td></tr><tr><td style="font-weight:bold;vertical-align:top;">is_jython</td><td style="vertical-align:top;">:</td><td><div>False</div></td></tr><tr><td style="font-weight:bold;vertical-align:top;">is_pypy</td><td style="vertical-align:top;">:</td><td><div>False</div></td></tr><tr><td style="font-weight:bold;vertical-align:top;">is_source</td><td style="vertical-align:top;">:</td><td><div>True</div></td></tr><tr><td style="font-weight:bold;vertical-align:top;">local_hosts</td><td style="vertical-align:top;">:</td><td><div><table><tr><td><div>user-Inspiron-5521</div></td></tr><tr><td><div>::1</div></td></tr><tr><td><div>127.0.1.1</div></td></tr><tr><td><div>::ffff:127.0.0.1</div></td></tr><tr><td><div>127.0.0.1</div></td></tr></table></div></td></tr><tr><td style="font-weight:bold;vertical-align:top;">web2py_version</td><td style="vertical-align:top;">:</td><td><div>2.9.4-stable+timestamp.2014.03.05.04.44.09</div></td></tr></table></div></td></tr><tr><td style="font-weight:bold;vertical-align:top;">is_https</td><td style="vertical-align:top;">:</td><td><div>False</div></td></tr><tr><td style="font-weight:bold;vertical-align:top;">is_local</td><td style="vertical-align:top;">:</td><td><div>True</div></td></tr><tr><td style="font-weight:bold;vertical-align:top;">is_restful</td><td style="vertical-align:top;">:</td><td><div>False</div></td></tr><tr><td style="font-weight:bold;vertical-align:top;">now</td><td style="vertical-align:top;">:</td><td><div>datetime.datetime(2014, 4, 13, 13, 54, 55, 879133)</div></td></tr><tr><td style="font-weight:bold;vertical-align:top;">raw_args</td><td style="vertical-align:top;">:</td><td><div>8649156</div></td></tr><tr><td style="font-weight:bold;vertical-align:top;">raw_extension</td><td style="vertical-align:top;">:</td><td><div>None</div></td></tr><tr><td style="font-weight:bold;vertical-align:top;">url</td><td style="vertical-align:top;">:</td><td><div>/IMAGE_JOURNAL/default/test/8649156</div></td></tr><tr><td style="font-weight:bold;vertical-align:top;">utcnow</td><td style="vertical-align:top;">:</td><td><div>datetime.datetime(2014, 4, 13, 8, 24, 55, 879163)</div></td></tr><tr><td style="font-weight:bold;vertical-align:top;">uuid</td><td style="vertical-align:top;">:</td><td><div>IMAGE_JOURNAL/127.0.0.1.2014-04-13.13-54-55.f97ef8ee-1fe6-4bdf-adfb-38695c8f2d40</div></td></tr><tr><td style="font-weight:bold;vertical-align:top;">wsgi</td><td style="vertical-align:top;">:</td><td><div>&lt;gluon.main.LazyWSGI object at 0x7fb3c0241ed0&gt;</div></td></tr></table></div>'
tRp58
sS'frames'
p59
(lp60
(dp61
S'file'
p62
S'/home/user/Documents/web2py/gluon/restricted.py'
p63
sS'dump'
p64
(dp65
S'environment'
p66
S"{'A': <class 'gluon.html.A'>, 'ANY_OF': <class 'gluon.validators.ANY_OF'>, 'B': <class 'gluon.html.B'>, 'BEAUTIFY': <class 'gluon.html.BEAUTIFY'>, 'BODY': <class 'gluon.html.BODY'>, 'BR': <class 'gluon.html.BR'>, 'BUTTON': <class 'gluon.html.BUTTON'>, 'CAT': <class 'gluon.html.CAT'>, 'CENTER': <class 'gluon.html.CENTER'>, 'CLEANUP': <class 'gluon.validators.CLEANUP'>, ...}"
p67
sS'ccode'
p68
S'<code object <module> at 0x7fb3c01b62b0, file "/...s/IMAGE_JOURNAL/views/default/test.html", line 1>'
p69
ssS'lnum'
p70
I217
sS'lines'
p71
(dp72
I212
S'    try:'
p73
sI213
S'        if isinstance(code, types.CodeType):'
p74
sI214
S'            ccode = code'
p75
sI215
S'        else:'
p76
sI216
S'            ccode = compile2(code, layer)'
p77
sI217
S'        exec ccode in environment'
p78
sI218
S'    except HTTP:'
p79
sI219
S'        raise'
p80
sI220
S'    except RestrictedError:'
p81
sI221
S'        # do not encapsulate (obfuscate) the original RestrictedError'
p82
ssS'call'
p83
S'(code=\'response.write(\\\'<html>\\\\n<body>\\\\n<script>\\\\n\\\\n\\\\tjQ...tions"></div>\\\\n</body>\\\\n</html>\\\\n\\\', escape=False)\', environment={\'A\': <class \'gluon.html.A\'>, \'ANY_OF\': <class \'gluon.validators.ANY_OF\'>, \'B\': <class \'gluon.html.B\'>, \'BEAUTIFY\': <class \'gluon.html.BEAUTIFY\'>, \'BODY\': <class \'gluon.html.BODY\'>, \'BR\': <class \'gluon.html.BR\'>, \'BUTTON\': <class \'gluon.html.BUTTON\'>, \'CAT\': <class \'gluon.html.CAT\'>, \'CENTER\': <class \'gluon.html.CENTER\'>, \'CLEANUP\': <class \'gluon.validators.CLEANUP\'>, ...}, layer=\'/home/user/Documents/web2py/applications/IMAGE_JOURNAL/views/default/test.html\')'
p84
sS'func'
p85
S'restricted'
p86
sa(dp87
g62
S'/home/user/Documents/web2py/applications/IMAGE_JOURNAL/views/default/test.html'
p88
sg64
(dp89
S'body'
p90
S'undefined'
p91
ssg70
I2
sg71
(dp92
I1
S'response.write(\'<html>\\n<body>\\n<script>\\n\\n\\tjQuery("#searchinput").keyup(function(){\\n\\tajax(\\\'search_byalbum\\\', [\\\'searchinput\\\'], \\\'suggestions\\\')});\\n\\t\\n\\t</script>\\n\\nlist \', escape=False)'
p93
sI2
S'response.write(selected)'
p94
sI3
S'response.write(\'\\n\\n\\n<style>\\n\\t\\t\\t\\t\\t#suggestions { position: relative; }\\n\\t\\t\\t\\t\\t.suggestions { background: white; border: solid 1px #55A6C8; }\\n\\t\\t\\t\\t\\t.suggestions DIV { padding: 2px 4px 2px 4px; }\\n\\t\\t\\t\\t\\t</style>\\n\\n        \\t\\t\\t\\t<input id="searchinput" type="text" name="searchinput" placeholder="  Enter your search term ..." />\\n\\t\\t\\t\\t\\t\\t\\n\\t\\t\\t\\t\\t\\t<label id="searchover">\\t\\t\\t\\n\\t\\t\\t\\t\\t\\t\\t<input id="searchbutton" type="button" value="Search"/>\\n\\t\\t\\t\\t\\t\\t\\t<a href=""></a>\\n\\t\\t\\t\\t\\t\\t</label>\\n\\t\\t\\t\\t\\t<div style="position: absolute;" id="suggestions" class="suggestions"></div>\\n</body>\\n</html>\\n\', escape=False)'
p95
ssg83
S'()'
p96
sg85
S'<module>'
p97
sasS'pyver'
p98
S'Python 2.7.5+: /usr/bin/python (prefix: /usr)'
p99
sS'session'
p100
g57
(S's\x1a\x00\x00\x00<div><table></table></div>'
tRp101
sS'etype'
p102
S"<type 'exceptions.NameError'>"
p103
sS'date'
p104
S'Sun Apr 13 13:54:55 2014'
p105
sS'response'
p106
g57
(S's\xdf\x16\x00\x00<div><table><tr><td style="font-weight:bold;vertical-align:top;">body</td><td style="vertical-align:top;">:</td><td><div>&lt;cStringIO.StringO object at 0x7fb3c01adb20&gt;</div></td></tr><tr><td style="font-weight:bold;vertical-align:top;">cookies</td><td style="vertical-align:top;">:</td><td><div><table><tr><td style="font-weight:bold;vertical-align:top;">session_id_image_journal</td><td style="vertical-align:top;">:</td><td><div>127.0.0.1-19ae8106-8b1d-43c2-bf0d-658c1cf36c0f<table><tr><td style="font-weight:bold;vertical-align:top;">comment</td><td style="vertical-align:top;">:</td><td><div></div></td></tr><tr><td style="font-weight:bold;vertical-align:top;">domain</td><td style="vertical-align:top;">:</td><td><div></div></td></tr><tr><td style="font-weight:bold;vertical-align:top;">expires</td><td style="vertical-align:top;">:</td><td><div></div></td></tr><tr><td style="font-weight:bold;vertical-align:top;">httponly</td><td style="vertical-align:top;">:</td><td><div></div></td></tr><tr><td style="font-weight:bold;vertical-align:top;">max-age</td><td style="vertical-align:top;">:</td><td><div></div></td></tr><tr><td style="font-weight:bold;vertical-align:top;">path</td><td style="vertical-align:top;">:</td><td><div>/</div></td></tr><tr><td style="font-weight:bold;vertical-align:top;">secure</td><td style="vertical-align:top;">:</td><td><div></div></td></tr><tr><td style="font-weight:bold;vertical-align:top;">version</td><td style="vertical-align:top;">:</td><td><div></div></td></tr></table></div></td></tr></table></div></td></tr><tr><td style="font-weight:bold;vertical-align:top;">delimiters</td><td style="vertical-align:top;">:</td><td><div><table><tr><td><div>{{</div></td></tr><tr><td><div>}}</div></td></tr></table></div></td></tr><tr><td style="font-weight:bold;vertical-align:top;">files</td><td style="vertical-align:top;">:</td><td><div><table></table></div></td></tr><tr><td style="font-weight:bold;vertical-align:top;">flash</td><td style="vertical-align:top;">:</td><td><div></div></td></tr><tr><td style="font-weight:bold;vertical-align:top;">generic_patterns</td><td style="vertical-align:top;">:</td><td><div><table></table></div></td></tr><tr><td style="font-weight:bold;vertical-align:top;">headers</td><td style="vertical-align:top;">:</td><td><div><table><tr><td style="font-weight:bold;vertical-align:top;">X-Powered-By</td><td style="vertical-align:top;">:</td><td><div>web2py</div></td></tr></table></div></td></tr><tr><td style="font-weight:bold;vertical-align:top;">menu</td><td style="vertical-align:top;">:</td><td><div><table></table></div></td></tr><tr><td style="font-weight:bold;vertical-align:top;">meta</td><td style="vertical-align:top;">:</td><td><div><table></table></div></td></tr><tr><td style="font-weight:bold;vertical-align:top;">models_to_run</td><td style="vertical-align:top;">:</td><td><div><table><tr><td><div>^\\w+\\.py$</div></td></tr><tr><td><div>^default/\\w+\\.py$</div></td></tr><tr><td><div>^default/test/\\w+\\.py$</div></td></tr></table></div></td></tr><tr><td style="font-weight:bold;vertical-align:top;">postprocessing</td><td style="vertical-align:top;">:</td><td><div><table></table></div></td></tr><tr><td style="font-weight:bold;vertical-align:top;">session_client</td><td style="vertical-align:top;">:</td><td><div>127.0.0.1</div></td></tr><tr><td style="font-weight:bold;vertical-align:top;">session_cookie_compression_level</td><td style="vertical-align:top;">:</td><td><div>None</div></td></tr><tr><td style="font-weight:bold;vertical-align:top;">session_cookie_expires</td><td style="vertical-align:top;">:</td><td><div>None</div></td></tr><tr><td style="font-weight:bold;vertical-align:top;">session_cookie_key</td><td style="vertical-align:top;">:</td><td><div>None</div></td></tr><tr><td style="font-weight:bold;vertical-align:top;">session_data_name</td><td style="vertical-align:top;">:</td><td><div>session_data_image_journal</div></td></tr><tr><td style="font-weight:bold;vertical-align:top;">session_file</td><td style="vertical-align:top;">:</td><td><div>&lt;open file &#x27;/home/user/Documents/web2py/applications/IMAGE_JOURNAL/sessions/127.0.0.1-19ae8106-8b1d-43c2-bf0d-658c1cf36c0f&#x27;, mode &#x27;rb+&#x27; at 0x7fb3c0224c00&gt;</div></td></tr><tr><td style="font-weight:bold;vertical-align:top;">session_filename</td><td style="vertical-align:top;">:</td><td><div>/home/user/Documents/web2py/applications/IMAGE_JOURNAL/sessions/127.0.0.1-19ae8106-8b1d-43c2-bf0d-658c1cf36c0f</div></td></tr><tr><td style="font-weight:bold;vertical-align:top;">session_hash</td><td style="vertical-align:top;">:</td><td><div>836ef3c7227d931d3fdb1de16b12d667</div></td></tr><tr><td style="font-weight:bold;vertical-align:top;">session_id</td><td style="vertical-align:top;">:</td><td><div>127.0.0.1-19ae8106-8b1d-43c2-bf0d-658c1cf36c0f</div></td></tr><tr><td style="font-weight:bold;vertical-align:top;">session_id_name</td><td style="vertical-align:top;">:</td><td><div>session_id_image_journal</div></td></tr><tr><td style="font-weight:bold;vertical-align:top;">session_locked</td><td style="vertical-align:top;">:</td><td><div>True</div></td></tr><tr><td style="font-weight:bold;vertical-align:top;">session_masterapp</td><td style="vertical-align:top;">:</td><td><div>IMAGE_JOURNAL</div></td></tr><tr><td style="font-weight:bold;vertical-align:top;">session_new</td><td style="vertical-align:top;">:</td><td><div>False</div></td></tr><tr><td style="font-weight:bold;vertical-align:top;">session_storage_type</td><td style="vertical-align:top;">:</td><td><div>file</div></td></tr><tr><td style="font-weight:bold;vertical-align:top;">status</td><td style="vertical-align:top;">:</td><td><div>200</div></td></tr><tr><td style="font-weight:bold;vertical-align:top;">view</td><td style="vertical-align:top;">:</td><td><div>default/test.html</div></td></tr></table></div>'
tRp107
sS'locals'
p108
(dp109
S'OBJECT'
p110
S"<class 'gluon.html.OBJECT'>"
p111
sS'SQLDB'
p112
S"<class 'gluon.dal.DAL'>"
p113
sg100
S"<Storage {'_formkey[login/create]': ['64fcceb1-e...391bf', '04384ed1-48a6-41a8-8091-0be16939d9c6']}>"
p114
sS'LINK'
p115
S"<class 'gluon.html.LINK'>"
p116
sS'BR'
p117
S"<class 'gluon.html.BR'>"
p118
sS'local_import'
p119
S'<function <lambda>>'
p120
sS'OPTGROUP'
p121
S"<class 'gluon.html.OPTGROUP'>"
p122
sS'PRE'
p123
S"<class 'gluon.html.PRE'>"
p124
sS'IS_INT_IN_RANGE'
p125
S"<class 'gluon.validators.IS_INT_IN_RANGE'>"
p126
sS'IS_LOWER'
p127
S"<class 'gluon.validators.IS_LOWER'>"
p128
sS'IS_STRONG'
p129
S"<class 'gluon.validators.IS_STRONG'>"
p130
sS'cache'
p131
S'<gluon.cache.Cache object>'
p132
sS'IS_IN_DB'
p133
S"<class 'gluon.validators.IS_IN_DB'>"
p134
sS'TAG'
p135
S'<gluon.html.__TAG__ object>'
p136
sS'SQLField'
p137
S"<class 'gluon.dal.Field'>"
p138
sS'BODY'
p139
S"<class 'gluon.html.BODY'>"
p140
sS'IS_DATE_IN_RANGE'
p141
S"<class 'gluon.validators.IS_DATE_IN_RANGE'>"
p142
sS'TH'
p143
S"<class 'gluon.html.TH'>"
p144
sS'URL'
p145
S'<function URL>'
p146
sS'__file__'
p147
S"'/home/user/Documents/web2py/applications/IMAGE_JOURNAL/views/default/test.html'"
p148
sS'db'
p149
S'<DAL uri="sqlite://webform.sqlite">'
p150
sS'P'
S"<class 'gluon.html.P'>"
p151
sS'TFOOT'
p152
S"<class 'gluon.html.TFOOT'>"
p153
sS'XHTML'
p154
S"<class 'gluon.html.XHTML'>"
p155
sS'ON'
p156
S'True'
p157
sS'OL'
p158
S"<class 'gluon.html.OL'>"
p159
sS'TEXTAREA'
p160
S"<class 'gluon.html.TEXTAREA'>"
p161
sS'MENU'
p162
S"<class 'gluon.html.MENU'>"
p163
sS'LOAD'
p164
S'<function LOAD>'
p165
sS'CODE'
p166
S"<class 'gluon.html.CODE'>"
p167
sS'HTTP'
p168
S"<class 'gluon.http.HTTP'>"
p169
sS'HR'
p170
S"<class 'gluon.html.HR'>"
p171
sS'IS_DATETIME'
p172
S"<class 'gluon.validators.IS_DATETIME'>"
p173
sS'HEAD'
p174
S"<class 'gluon.html.HEAD'>"
p175
sS'LABEL'
p176
S"<class 'gluon.html.LABEL'>"
p177
sS'CLEANUP'
p178
S"<class 'gluon.validators.CLEANUP'>"
p179
sS'SELECT'
p180
S"<class 'gluon.html.SELECT'>"
p181
sS'CENTER'
p182
S"<class 'gluon.html.CENTER'>"
p183
sS'__builtins__'
p184
S"{'ArithmeticError': <type 'exceptions.ArithmeticError'>, 'AssertionError': <type 'exceptions.AssertionError'>, 'AttributeError': <type 'exceptions.AttributeError'>, 'BaseException': <type 'exceptions.BaseException'>, 'BufferError': <type 'exceptions.BufferError'>, 'BytesWarning': <type 'exceptions.BytesWarning'>, 'DeprecationWarning': <type 'exceptions.DeprecationWarning'>, 'EOFError': <type 'exceptions.EOFError'>, 'Ellipsis': Ellipsis, 'EnvironmentError': <type 'exceptions.EnvironmentError'>, ...}"
p185
sS'HTML'
p186
S"<class 'gluon.html.HTML'>"
p187
sS'SQLFORM'
p188
S"<class 'gluon.sqlhtml.SQLFORM'>"
p189
sS'EM'
p190
S"<class 'gluon.html.EM'>"
p191
sS'redirect'
p192
S'<function redirect>'
p193
sS'FIELDSET'
p194
S"<class 'gluon.html.FIELDSET'>"
p195
sS'IS_EQUAL_TO'
p196
S"<class 'gluon.validators.IS_EQUAL_TO'>"
p197
sS'embed64'
p198
S'<function embed64>'
p199
sS'IS_LIST_OF'
p200
S"<class 'gluon.validators.IS_LIST_OF'>"
p201
sS'__name__'
p202
S"'__restricted__'"
p203
sS'EMBED'
p204
S"<class 'gluon.html.EMBED'>"
p205
sS'FORM'
p206
S"<class 'gluon.html.FORM'>"
p207
sS'H2'
p208
S"<class 'gluon.html.H2'>"
p209
sS'H3'
p210
S"<class 'gluon.html.H3'>"
p211
sS'BUTTON'
p212
S"<class 'gluon.html.BUTTON'>"
p213
sS'H1'
p214
S"<class 'gluon.html.H1'>"
p215
sS'H6'
p216
S"<class 'gluon.html.H6'>"
p217
sS'H4'
p218
S"<class 'gluon.html.H4'>"
p219
sS'H5'
p220
S"<class 'gluon.html.H5'>"
p221
sS'UL'
p222
S"<class 'gluon.html.UL'>"
p223
sS'IS_UPPER'
p224
S"<class 'gluon.validators.IS_UPPER'>"
p225
sS'xmlescape'
p226
S'<function xmlescape>'
p227
sS'IS_TIME'
p228
S"<class 'gluon.validators.IS_TIME'>"
p229
sS'OPTION'
p230
S"<class 'gluon.html.OPTION'>"
p231
sS'TITLE'
p232
S"<class 'gluon.html.TITLE'>"
p233
sS'CRYPT'
p234
S"<class 'gluon.validators.CRYPT'>"
p235
sS'IS_EMPTY_OR'
p236
S"<class 'gluon.validators.IS_EMPTY_OR'>"
p237
sS'MARKMIN'
p238
S"<class 'gluon.html.MARKMIN'>"
p239
sS'INPUT'
p240
S"<class 'gluon.html.INPUT'>"
p241
sS'STRONG'
p242
S"<class 'gluon.html.STRONG'>"
p243
sS'COL'
p244
S"<class 'gluon.html.COL'>"
p245
sS'SCRIPT'
p246
S"<class 'gluon.html.SCRIPT'>"
p247
sS'TABLE'
p248
S"<class 'gluon.html.TABLE'>"
p249
sS'IS_IPV4'
p250
S"<class 'gluon.validators.IS_IPV4'>"
p251
sS'IS_LENGTH'
p252
S"<class 'gluon.validators.IS_LENGTH'>"
p253
sS'IS_IPV6'
p254
S"<class 'gluon.validators.IS_IPV6'>"
p255
sS'XML'
p256
S"<class 'gluon.html.XML'>"
p257
sS'B'
S"<class 'gluon.html.B'>"
p258
sS'IMG'
p259
S"<class 'gluon.html.IMG'>"
p260
sS'SQLTABLE'
p261
S"<class 'gluon.sqlhtml.SQLTABLE'>"
p262
sS'IS_MATCH'
p263
S"<class 'gluon.validators.IS_MATCH'>"
p264
sS'IS_ALPHANUMERIC'
p265
S"<class 'gluon.validators.IS_ALPHANUMERIC'>"
p266
sS'SPAN'
p267
S"<class 'gluon.html.SPAN'>"
p268
sS'IS_JSON'
p269
S"<class 'gluon.validators.IS_JSON'>"
p270
sS'IS_IPADDRESS'
p271
S"<class 'gluon.validators.IS_IPADDRESS'>"
p272
sS'IS_SLUG'
p273
S"<class 'gluon.validators.IS_SLUG'>"
p274
sS'BEAUTIFY'
p275
S"<class 'gluon.html.BEAUTIFY'>"
p276
sS'META'
p277
S"<class 'gluon.html.META'>"
p278
sS'IS_DATE'
p279
S"<class 'gluon.validators.IS_DATE'>"
p280
sS'IS_EMAIL'
p281
S"<class 'gluon.validators.IS_EMAIL'>"
p282
sS'IS_NOT_EMPTY'
p283
S"<class 'gluon.validators.IS_NOT_EMPTY'>"
p284
sS'IS_FLOAT_IN_RANGE'
p285
S"<class 'gluon.validators.IS_FLOAT_IN_RANGE'>"
p286
sS'TBODY'
p287
S"<class 'gluon.html.TBODY'>"
p288
sS'CAT'
p289
S"<class 'gluon.html.CAT'>"
p290
sS'Field'
p291
S"<class 'gluon.dal.Field'>"
p292
sS'IS_LIST_OF_EMAILS'
p293
S"<class 'gluon.validators.IS_LIST_OF_EMAILS'>"
p294
sS'DIV'
p295
S"<class 'gluon.html.DIV'>"
p296
sS'LEGEND'
p297
S"<class 'gluon.html.LEGEND'>"
p298
sS'COLGROUP'
p299
S"<class 'gluon.html.COLGROUP'>"
p300
sS'DAL'
p301
S"<class 'gluon.dal.DAL'>"
p302
sS'TT'
p303
S"<class 'gluon.html.TT'>"
p304
sS'TR'
p305
S"<class 'gluon.html.TR'>"
p306
sS'LI'
p307
S"<class 'gluon.html.LI'>"
p308
sS'IFRAME'
p309
S"<class 'gluon.html.IFRAME'>"
p310
sS'TD'
p311
S"<class 'gluon.html.TD'>"
p312
sS'IS_URL'
p313
S"<class 'gluon.validators.IS_URL'>"
p314
sS'A'
S"<class 'gluon.html.A'>"
p315
sS'STYLE'
p316
S"<class 'gluon.html.STYLE'>"
p317
sS'IS_DATETIME_IN_RANGE'
p318
S"<class 'gluon.validators.IS_DATETIME_IN_RANGE'>"
p319
sS'IS_IMAGE'
p320
S"<class 'gluon.validators.IS_IMAGE'>"
p321
sS'I'
S"<class 'gluon.html.I'>"
p322
sS'IS_NOT_IN_DB'
p323
S"<class 'gluon.validators.IS_NOT_IN_DB'>"
p324
sg106
S"<Storage {'body': <cStringIO.StringO object at 0...at 0x7fb3c02488c0>, 'view': 'default/test.html'}>"
p325
sS'THEAD'
p326
S"<class 'gluon.html.THEAD'>"
p327
sS'ANY_OF'
p328
S"<class 'gluon.validators.ANY_OF'>"
p329
sS'IS_NULL_OR'
p330
S"<class 'gluon.validators.IS_EMPTY_OR'>"
p331
sg56
S"<Storage {'_vars': <Storage {}>, 'function': 'te...r/Documents/web2py/applications/IMAGE_JOURNAL/'}>"
p332
sS'IS_EXPR'
p333
S"<class 'gluon.validators.IS_EXPR'>"
p334
sS'T'
S'<gluon.languages.translator object>'
p335
sS'IS_IN_SET'
p336
S"<class 'gluon.validators.IS_IN_SET'>"
p337
sS'IS_UPLOAD_FILENAME'
p338
S"<class 'gluon.validators.IS_UPLOAD_FILENAME'>"
p339
sS'IS_DECIMAL_IN_RANGE'
p340
S"<class 'gluon.validators.IS_DECIMAL_IN_RANGE'>"
p341
sssS'traceback'
p342
S'Traceback (most recent call last):\n  File "/home/user/Documents/web2py/gluon/restricted.py", line 217, in restricted\n    exec ccode in environment\n  File "/home/user/Documents/web2py/applications/IMAGE_JOURNAL/views/default/test.html", line 2, in <module>\n    <body>\nNameError: name \'selected\' is not defined\n'
p343
s.