(dp1
S'output'
p2
S"<type 'exceptions.AttributeError'> 'Rows' object has no attribute 'id'"
p3
sS'layer'
p4
S'/home/user/Documents/web2py/applications/IMAGE_JOURNAL/controllers/default.py'
p5
sS'code'
p6
S'"""This is the registration controller"""\ndef register():\n\trecord = db.register(request.args(0))\n\tform = SQLFORM(db.register,record)\n\t\n\tif form.accepts(request,session,hideerror = True):\n\t\t\tresponse.title = \'Thanks the form has been accepted\'\n\t\t\tredirect(URL(\'default\',\'login\'))\n\telif form.errors:\n\t\tresponse.title = \'please fill the form correctly\'\n\telse:\n\t\tresponse.title = \'please fill the form\'\n\treturn dict(form = form,x = form.vars.id)\n\n\n"""This function can be used to see any database. This is only for developer use"""\ndef all_records():\n      grid = SQLFORM.grid(db.Comments,user_signature=False)\n      return dict(grid = grid)\n\n\n\n\n"""This function can be used to delete all the entries of a database. This is only for developer use"""\ndef delete():\n\tresponse.title = "records are being deleted"\n\tdb(db.Comments.comment != None).delete()\n\n\n\n\n"""This is the login function. This will create a session for the logged in user"""\ndef login():\n\timport random\n\tform = SQLFORM(db.login)\n\tform.custom.submit[\'_id\'] = "buttonstyle"\n\tif form.accepts(request,session,hideerror = True):\n\t\tif(form.vars.Password == db(db.register.Email == form.vars.Email).select()[0].Password):\n\t\t\tresponse.title = "you have successfully logged in"\n\t\t\tx = str(random.randint(1000000,10000000))\n\t\t\tdb(db.login.id == form.vars.id).update(session_id = x, session_status = 1)\n\t\t\tredirect(URL(\'timeline/\'+x))\n\t\telse:\n\t\t\tresponse.title = "Sorry wrong password"\n\t\t\tname = "Stranger"\n\telif form.errors:\n\t\tresponse.title = "you have to first register yourselves"\n\t\tname = "Guest"\n\telse:\n\t\tresponse.title = "please fill in your login details"\n\t\tname = "Guest"\n\treturn dict(form = form,name = name)\n\n\ndef timeline():\n\tsession_id = request.args[0]\n        r = check(session_id)\n\tif(r == \'0\'):\n\t\tresponse.title = "hello world"\n\t\tredirect(URL(\'not_logged_in\'))\n\tname = get_name(session_id)\n\t\t\n\trows = db(db.Image.owner == name).select(orderby=~db.Image.id)\n\tids = []\n\t\n\tfor i in rows:\n\t\tr = db(db.Albums.album_name == i.album).select()[0].id\n\t\tids.append(r)\n\n\treturn dict(name = name,session_id = session_id, rows = rows, ids = ids)\n\t\t\n"""This is for the home page of the user"""\ndef user():\n\tsession_id = request.args[0]\n        r = check(session_id)\n\tif(r == \'0\'):\n\t\tresponse.title = "hello world"\n\t\tredirect(URL(\'not_logged_in\'))\n\tname = get_name(session_id)\n\tresponse.title = "Welcome " + name\n\treturn dict(name = name,session_id = session_id)\n\n\n\n"""Using this controller the user can add an album in his database"""\ndef add_album():\n\tmsg = "welcome"\n\targs = request.args\n\tsession_id = args[0]\n\tr = check(session_id)\n\tif(r == 0):\n\t\tredirect(URL(\'not_logged_in\'))\n\tname = get_name(session_id)\n\tresponse.title = "Create Album" + name\t\n\trecord = db.Albums(request.args(0))\n\tform = SQLFORM(db.Albums,record)\n\tif form.accepts(request,session):\n\t\tdb(db.Albums.id == form.vars.id).update(owner = name)\n\t\tx = db(db.register.Email == name).select()[0].albums\n\t\tdb(db.register.Email == name).update(albums = x + [form.vars.id])\n\t\tredirect(URL(\'my_albums/\' + session_id))\t\t\n\tif form.errors:\n\t\tif(len(form.errors) == 1) and (form.errors.default1 == "enter a value"):\n\t\t\tmsg = "hello"\n\treturn dict(form = form,msg = msg,session_id = session_id)\n\n\n\n\n"""This will display all tehe albums of the logged in user"""\ndef my_albums():\n\targs = request.args\n\tsession_id= args[0]\n\tr = check(session_id)\n\tif(r == 0):\n\t\tredirect(URL(\'not_logged_in\'))\n\tname = get_name(session_id)\n\tresponse.title = "Welcome " + name\n\talbums = []\n\timages = []\n\trows = db(db.register.Email == name).select()[0].albums\t\n\tfor i in rows:\n\t\trow = db(db.Albums.id == i).select()[0]\n\t\talbums.append(row.album_name)\n\t\tif(row.default1!=None):\n\t\t\timages.append(row.default1)\n\t\telse:\n\t\t\timage = db(db.Image.id == 28).select()[0]\n\t\t\timages.append(image)\n\t\t\tconsole.log(image)\n\trecord = db.Albums(request.args(0))\n\tform = SQLFORM(db.Albums,record)\n\tif form.accepts(request,session):\n\t\tdb(db.Albums.id == form.vars.id).update(owner = name)\n\t\tx = db(db.register.Email == name).select()[0].albums\n\t\tdb(db.register.Email == name).update(albums = x + [form.vars.id])\t\t\n\t\timage_id = db.Image.insert(image = form.vars.default1,album = form.vars.album_name,owner = name)\n\t\ty = db(db.Albums.album_name == form.vars.album_name).select()[0].images\n\t\tdb(db.Albums.album_name == form.vars.album_name).update(images = y + [image_id])\n\t\tredirect(URL(\'my_albums/\' + session_id))\n\tif form.errors:\n\t\tresponse.title = "sorry the album was not created"\t\n\treturn dict(albums = albums,name = name,images = images,ids = rows,session_id = session_id,form = form)\n\n\n\n\n"""This will display all the images of a paticular album"""\ndef display_album():\n\targs = request.args\n\tsession_id = request.args[0]\n\tr = check(session_id)\n\tif(r == 0):\n\t\tredirect(URL(\'not_logged_in\'))\n\tname = get_name(session_id)\n\talbum_name = request.args[1]\n\towner = request.args[2]\n\talbum_id = request.args[3]\n\tresponse.title = "Welcome " + name\n\timages = []\n\trows = db(db.Albums.id == album_id).select()[0].images\n\tfor j in rows:\n\t\timages.append(db(db.Image.id == j).select()[0].image)\n\trecord = db.Image(request.args(0))\n\tform = SQLFORM(db.Image,record)\n\tif form.accepts(request,session):\n\t\tdb(db.Image.id==form.vars.id).update(album=album_name)\n\t\tdb(db.Image.id==form.vars.id).update(owner=name)\n\t\trows = db(db.Albums.id == album_id).select()[0]\n\t\tx = rows.images\t\t\n\t\tdb(db.Albums.id == album_id).update(images = x + [form.vars.id])\n\t\tredirect(URL(\'display_album/\'+session_id+\'/\'+album_name+\'/\' +owner +\'/\' + album_id ))\n\telif form.errors:\n\t\tresponse.title = "no image selected"\n\treturn dict(form = form,images = images,album_name = album_name,name  = name,owner = owner,session_id = session_id, album_id = album_id)\n\n\n\n\n\n"""This will display the clicked image and the comments on that image"""\ndef display_image():\n\targs = request.args\n\tsession_id = request.args[0]\n\tr = check(session_id)\n\tif(r == 0):\n\t\tredirect(URL(\'not_logged_in\'))\n\tname = get_name(session_id)\n\tresponse.title = "Welcome "+ name\n\n\talbum = request.args[1]\n\timage = request.args[2]\n\towner = request.args[3]\n\talbum_id = request.args[4]\n\n\talbum_name = album\n\n\trow = db(db.Image.image == image).select()[0]\n\towner = row.owner\n\timage_id1 = row.id\n\tmin_id = db(db.Image).select(db.Image.id.min()).id\n\tmax_id = db(db.Image).select(db.Image.id.max()).id\n\t\t\n\timageid_next = row.id + 1\n\timageid_prev = row.id - 1\n\n\tif imageid_prev < min_id:\n\t\timageid_prev = min_id\n\tif imageid_next > max_id:\n\t\timageid_next = max_id\n\n\tprevimage = db(db.Image.id == imageid_prev).select()[0]\n\tprevimage = previmage.image\n\tnextimage = db(db.Image.id == imageid_next).select()[0]\n\tnextimage = nextimage.image\n\n\trecord = db.register(request.args(0))\n\tform = SQLFORM(db.Comments,record)\n\n\tform.custom.widget.comment[\'_id\'] = "feedback"\n\tform.custom.widget.comment[\'_placeholder\'] = "Comment here ..."\n\tform.custom.widget.comment[\'_type\'] = "textarea"\n\t\n\tform.custom.submit[\'_id\'] = "postcomment"\n\tform.custom.submit[\'_value\'] = "Post Comment"\t\n\n\tif form.accepts(request,session):\n\t\tdb(db.Comments.id == form.vars.id).update(commentator = name)\n\t\tdb(db.Comments.id == form.vars.id).update(image_id = image_id1)\n\t\tif(owner!=name):\n\t\t\tdb(db.Comments.id == form.vars.id).update(comment_status = 0)\n\t\t\tarr = db(db.register.Email == owner).select()[0].requests\n\t\t\tdb(db.register.Email == owner).update(requests = arr + [form.vars.id])\n\t\telse:\n\t\t\tdb(db.Comments.id == form.vars.id).update(comment_status = 1)\n\trows = db(db.Comments.image_id == image_id1).select()\n\tcommentator = []\n\tcomment = []\n\tfor i in rows:\n\t\tif(int(i.comment_status) == 1):\n\t\t\tcommentator.append(i.commentator)\n\t\t\tcomment.append(i.comment)\n\t\n\tperson_name_first = []\n\tperson_name_last = []\n\n\tfor i in range(0,len(commentator)):\n\t\tperson = db(db.register.Email == commentator[len(commentator)-1]).select()[0].First_Name\n\t\tperson_2 = db(db.register.Email == commentator[len(commentator)-1]).select()[0].Last_Name\n\t\tperson_name_first.append(person)\n\t\tperson_name_last.append(person_2)\n\n\treturn dict(previmage = previmage, nextimage = nextimage, image = image,owner = owner, album_id = album_id, album_name = album_name, form = form,commentator = commentator,comment = comment,session_id = session_id, person_name_first = person_name_first, person_name_last = person_name_last)\n\n\n\n\n"""This will display all the albums whose permission  has been set to public"""\ndef public_albums():\n\trows = db(db.Albums.album_name!=None).select()\n\targs = request.args\n\tsession_id = request.args[0]\n\tr = check(session_id)\n\tif(r == 0):\n\t\tredirect(URL(\'not_logged_in\'))\n\tname = get_name(session_id)\n\talbum_name = []\n\towners = []\n\timages = []\n\tids = []\n\tfor i in rows:\n\t\talbum_name.append(i.album_name)\n\t\timages.append(i.default1)\n\t\towners.append(i.owner)\t\n\t\tids.append(i.id)\t\n\treturn dict(albums = album_name,owners = owners, images = images,name = name,ids = ids,session_id = session_id)\n\n\ndef download():\n        return response.download(request, db)\n\t\n\t\ndef get_name(session_id):\n\treturn db(db.login.session_id == session_id).select()[0].Email\n\n"""This function checks if the given session is valid or not"""\ndef check(session_id):\n\tx = db(db.login.session_id == session_id).select()\n\tif(len(x) == 0):\n\t\treturn 0\n\telse :\n\t\treturn x[0].session_status\n\t\t\ndef not_logged_in():\n\tresponse.title = "Sorry You Are Not Logged In"\n\treturn dict()\n\ndef logout():\n\tsession_id = request.args[0]\n\tx = db(db.login.session_id == session_id).select()\n\tif(len(x) == 0):\n\t\tredirect(URL(\'not_logged_in\'))\n\telse:\n\t\tdb(db.login.session_id == session_id).update(session_status = 0)\n\t\tredirect(URL(\'default\',\'login\'))\n\treturn dict()\n\n"""This function will show all the requests for comments"""\ndef requests():\n\tsession_id = request.args[0]\n\tname = get_name(session_id)\n\trequests = db(db.register.Email == name).select()[0].requests\n\tresponse.title = requests\n\tcomments = []\n\tcommentators = []\n\tids = []\n\tfor i in requests:\n\t\tx = db(db.Comments.id == i).select()[0]\n\t\tcomments.append(x.comment)\n\t\tcommentators.append(x.commentator)\n\t\tids.append(i)\n\treturn dict(session_id = session_id,comments = comments,commentators = commentators,ids = ids)\n\ndef validate_comment():\n\tsession_id = request.args[0]\n\tcomment_id = request.args[1]\n\tdb(db.Comments.id == int(comment_id)).update(comment_status = 1)\n\tx = db(db.Comments.id == comment_id).select()[0]\n\timage_id = x.image_id\n\towner = db(db.Image.id == image_id).select()[0].owner\n\ty = db(db.register.Email == owner).select()[0].requests\n\ty = y.remove(int(comment_id))\n\tdb(db.register.Email == owner).update(requests = y)\n\tredirect(URL(\'requests/\' + session_id) )\n\treturn dict()\n\nresponse._vars=response._caller(display_image)\n'
p7
sS'snapshot'
p8
(dp9
sS'traceback'
p10
S'Traceback (most recent call last):\n  File "/home/user/Documents/web2py/gluon/restricted.py", line 217, in restricted\n    exec ccode in environment\n  File "/home/user/Documents/web2py/applications/IMAGE_JOURNAL/controllers/default.py", line 337, in <module>\n  File "/home/user/Documents/web2py/gluon/globals.py", line 385, in <lambda>\n    self._caller = lambda f: f()\n  File "/home/user/Documents/web2py/applications/IMAGE_JOURNAL/controllers/default.py", line 201, in display_image\n    min_id = db(db.Image).select(db.Image.id.min()).id\nAttributeError: \'Rows\' object has no attribute \'id\'\n'
p11
s.